
rov_stm_c.elf:     file format elf32-littlearm

Sections:
Idx Name          Size      VMA       LMA       File off  Algn
  0 .isr_vector   0000010c  08000000  08000000  00001000  2**0
                  CONTENTS, ALLOC, LOAD, READONLY, DATA
  1 .text         00002dcc  0800010c  0800010c  0000110c  2**2
                  CONTENTS, ALLOC, LOAD, READONLY, CODE
  2 .rodata       00000028  08002ed8  08002ed8  00003ed8  2**2
                  CONTENTS, ALLOC, LOAD, READONLY, DATA
  3 .ARM.extab    00000000  08002f00  08002f00  00004010  2**0
                  CONTENTS
  4 .ARM          00000000  08002f00  08002f00  00004010  2**0
                  CONTENTS
  5 .preinit_array 00000000  08002f00  08002f00  00004010  2**0
                  CONTENTS, ALLOC, LOAD, DATA
  6 .init_array   00000004  08002f00  08002f00  00003f00  2**2
                  CONTENTS, ALLOC, LOAD, DATA
  7 .fini_array   00000004  08002f04  08002f04  00003f04  2**2
                  CONTENTS, ALLOC, LOAD, DATA
  8 .data         00000010  20000000  08002f08  00004000  2**2
                  CONTENTS, ALLOC, LOAD, DATA
  9 .bss          00000150  20000010  08002f18  00004010  2**2
                  ALLOC
 10 ._user_heap_stack 00000600  20000160  08002f18  00004160  2**0
                  ALLOC
 11 .ARM.attributes 00000029  00000000  00000000  00004010  2**0
                  CONTENTS, READONLY
 12 .debug_info   00009037  00000000  00000000  00004039  2**0
                  CONTENTS, READONLY, DEBUGGING, OCTETS
 13 .debug_abbrev 0000178c  00000000  00000000  0000d070  2**0
                  CONTENTS, READONLY, DEBUGGING, OCTETS
 14 .debug_aranges 00000b50  00000000  00000000  0000e800  2**3
                  CONTENTS, READONLY, DEBUGGING, OCTETS
 15 .debug_rnglists 000008e9  00000000  00000000  0000f350  2**0
                  CONTENTS, READONLY, DEBUGGING, OCTETS
 16 .debug_macro  000174b7  00000000  00000000  0000fc39  2**0
                  CONTENTS, READONLY, DEBUGGING, OCTETS
 17 .debug_line   0000b963  00000000  00000000  000270f0  2**0
                  CONTENTS, READONLY, DEBUGGING, OCTETS
 18 .debug_str    00089a96  00000000  00000000  00032a53  2**0
                  CONTENTS, READONLY, DEBUGGING, OCTETS
 19 .comment      00000086  00000000  00000000  000bc4e9  2**0
                  CONTENTS, READONLY
 20 .debug_frame  00002f7c  00000000  00000000  000bc570  2**2
                  CONTENTS, READONLY, DEBUGGING, OCTETS
 21 .debug_line_str 0000005c  00000000  00000000  000bf4ec  2**0
                  CONTENTS, READONLY, DEBUGGING, OCTETS

Disassembly of section .text:

0800010c <__do_global_dtors_aux>:
 800010c:	b510      	push	{r4, lr}
 800010e:	4c05      	ldr	r4, [pc, #20]	@ (8000124 <__do_global_dtors_aux+0x18>)
 8000110:	7823      	ldrb	r3, [r4, #0]
 8000112:	b933      	cbnz	r3, 8000122 <__do_global_dtors_aux+0x16>
 8000114:	4b04      	ldr	r3, [pc, #16]	@ (8000128 <__do_global_dtors_aux+0x1c>)
 8000116:	b113      	cbz	r3, 800011e <__do_global_dtors_aux+0x12>
 8000118:	4804      	ldr	r0, [pc, #16]	@ (800012c <__do_global_dtors_aux+0x20>)
 800011a:	f3af 8000 	nop.w
 800011e:	2301      	movs	r3, #1
 8000120:	7023      	strb	r3, [r4, #0]
 8000122:	bd10      	pop	{r4, pc}
 8000124:	20000010 	.word	0x20000010
 8000128:	00000000 	.word	0x00000000
 800012c:	08002ec0 	.word	0x08002ec0

08000130 <frame_dummy>:
 8000130:	b508      	push	{r3, lr}
 8000132:	4b03      	ldr	r3, [pc, #12]	@ (8000140 <frame_dummy+0x10>)
 8000134:	b11b      	cbz	r3, 800013e <frame_dummy+0xe>
 8000136:	4903      	ldr	r1, [pc, #12]	@ (8000144 <frame_dummy+0x14>)
 8000138:	4803      	ldr	r0, [pc, #12]	@ (8000148 <frame_dummy+0x18>)
 800013a:	f3af 8000 	nop.w
 800013e:	bd08      	pop	{r3, pc}
 8000140:	00000000 	.word	0x00000000
 8000144:	20000014 	.word	0x20000014
 8000148:	08002ec0 	.word	0x08002ec0

0800014c <main>:
 800014c:	b580      	push	{r7, lr}
 800014e:	b082      	sub	sp, #8
 8000150:	af00      	add	r7, sp, #0
 8000152:	f000 fef1 	bl	8000f38 <HAL_Init>
 8000156:	f000 fac1 	bl	80006dc <SystemClock_Config>
 800015a:	f000 fce9 	bl	8000b30 <MX_GPIO_Init>
 800015e:	f000 fb9b 	bl	8000898 <MX_TIM2_Init>
 8000162:	f000 fc2f 	bl	80009c4 <MX_TIM3_Init>
 8000166:	f000 fcb9 	bl	8000adc <MX_USART3_UART_Init>
 800016a:	f000 faf7 	bl	800075c <MX_TIM1_Init>
 800016e:	2201      	movs	r2, #1
 8000170:	f44f 5100 	mov.w	r1, #8192	@ 0x2000
 8000174:	487d      	ldr	r0, [pc, #500]	@ (800036c <main+0x220>)
 8000176:	f001 f9cd 	bl	8001514 <HAL_GPIO_WritePin>
 800017a:	210c      	movs	r1, #12
 800017c:	487c      	ldr	r0, [pc, #496]	@ (8000370 <main+0x224>)
 800017e:	f001 fea3 	bl	8001ec8 <HAL_TIM_PWM_Start>
 8000182:	2100      	movs	r1, #0
 8000184:	487b      	ldr	r0, [pc, #492]	@ (8000374 <main+0x228>)
 8000186:	f001 fe9f 	bl	8001ec8 <HAL_TIM_PWM_Start>
 800018a:	2104      	movs	r1, #4
 800018c:	4879      	ldr	r0, [pc, #484]	@ (8000374 <main+0x228>)
 800018e:	f001 fe9b 	bl	8001ec8 <HAL_TIM_PWM_Start>
 8000192:	2108      	movs	r1, #8
 8000194:	4877      	ldr	r0, [pc, #476]	@ (8000374 <main+0x228>)
 8000196:	f001 fe97 	bl	8001ec8 <HAL_TIM_PWM_Start>
 800019a:	210c      	movs	r1, #12
 800019c:	4875      	ldr	r0, [pc, #468]	@ (8000374 <main+0x228>)
 800019e:	f001 fe93 	bl	8001ec8 <HAL_TIM_PWM_Start>
 80001a2:	2100      	movs	r1, #0
 80001a4:	4874      	ldr	r0, [pc, #464]	@ (8000378 <main+0x22c>)
 80001a6:	f001 fe8f 	bl	8001ec8 <HAL_TIM_PWM_Start>
 80001aa:	2104      	movs	r1, #4
 80001ac:	4872      	ldr	r0, [pc, #456]	@ (8000378 <main+0x22c>)
 80001ae:	f001 fe8b 	bl	8001ec8 <HAL_TIM_PWM_Start>
 80001b2:	2108      	movs	r1, #8
 80001b4:	4870      	ldr	r0, [pc, #448]	@ (8000378 <main+0x22c>)
 80001b6:	f001 fe87 	bl	8001ec8 <HAL_TIM_PWM_Start>
 80001ba:	2207      	movs	r2, #7
 80001bc:	2150      	movs	r1, #80	@ 0x50
 80001be:	486f      	ldr	r0, [pc, #444]	@ (800037c <main+0x230>)
 80001c0:	f002 fe52 	bl	8002e68 <memset>
 80001c4:	4b6a      	ldr	r3, [pc, #424]	@ (8000370 <main+0x224>)
 80001c6:	681b      	ldr	r3, [r3, #0]
 80001c8:	2200      	movs	r2, #0
 80001ca:	641a      	str	r2, [r3, #64]	@ 0x40
 80001cc:	4b69      	ldr	r3, [pc, #420]	@ (8000374 <main+0x228>)
 80001ce:	681b      	ldr	r3, [r3, #0]
 80001d0:	2200      	movs	r2, #0
 80001d2:	635a      	str	r2, [r3, #52]	@ 0x34
 80001d4:	4b67      	ldr	r3, [pc, #412]	@ (8000374 <main+0x228>)
 80001d6:	681b      	ldr	r3, [r3, #0]
 80001d8:	2200      	movs	r2, #0
 80001da:	639a      	str	r2, [r3, #56]	@ 0x38
 80001dc:	4b65      	ldr	r3, [pc, #404]	@ (8000374 <main+0x228>)
 80001de:	681b      	ldr	r3, [r3, #0]
 80001e0:	2200      	movs	r2, #0
 80001e2:	63da      	str	r2, [r3, #60]	@ 0x3c
 80001e4:	4b63      	ldr	r3, [pc, #396]	@ (8000374 <main+0x228>)
 80001e6:	681b      	ldr	r3, [r3, #0]
 80001e8:	2200      	movs	r2, #0
 80001ea:	641a      	str	r2, [r3, #64]	@ 0x40
 80001ec:	4b62      	ldr	r3, [pc, #392]	@ (8000378 <main+0x22c>)
 80001ee:	681b      	ldr	r3, [r3, #0]
 80001f0:	2200      	movs	r2, #0
 80001f2:	635a      	str	r2, [r3, #52]	@ 0x34
 80001f4:	4b60      	ldr	r3, [pc, #384]	@ (8000378 <main+0x22c>)
 80001f6:	681b      	ldr	r3, [r3, #0]
 80001f8:	2200      	movs	r2, #0
 80001fa:	639a      	str	r2, [r3, #56]	@ 0x38
 80001fc:	4b5e      	ldr	r3, [pc, #376]	@ (8000378 <main+0x22c>)
 80001fe:	681b      	ldr	r3, [r3, #0]
 8000200:	2200      	movs	r2, #0
 8000202:	63da      	str	r2, [r3, #60]	@ 0x3c
 8000204:	2208      	movs	r2, #8
 8000206:	2100      	movs	r1, #0
 8000208:	485d      	ldr	r0, [pc, #372]	@ (8000380 <main+0x234>)
 800020a:	f002 fe2d 	bl	8002e68 <memset>
 800020e:	2364      	movs	r3, #100	@ 0x64
 8000210:	2208      	movs	r2, #8
 8000212:	495b      	ldr	r1, [pc, #364]	@ (8000380 <main+0x234>)
 8000214:	485b      	ldr	r0, [pc, #364]	@ (8000384 <main+0x238>)
 8000216:	f002 fcad 	bl	8002b74 <HAL_UART_Receive>
 800021a:	4603      	mov	r3, r0
 800021c:	2b00      	cmp	r3, #0
 800021e:	f040 8172 	bne.w	8000506 <main+0x3ba>
 8000222:	4b57      	ldr	r3, [pc, #348]	@ (8000380 <main+0x234>)
 8000224:	79db      	ldrb	r3, [r3, #7]
 8000226:	2b5f      	cmp	r3, #95	@ 0x5f
 8000228:	d173      	bne.n	8000312 <main+0x1c6>
 800022a:	2200      	movs	r2, #0
 800022c:	f44f 5100 	mov.w	r1, #8192	@ 0x2000
 8000230:	484e      	ldr	r0, [pc, #312]	@ (800036c <main+0x220>)
 8000232:	f001 f96f 	bl	8001514 <HAL_GPIO_WritePin>
 8000236:	4b4e      	ldr	r3, [pc, #312]	@ (8000370 <main+0x224>)
 8000238:	681b      	ldr	r3, [r3, #0]
 800023a:	2200      	movs	r2, #0
 800023c:	641a      	str	r2, [r3, #64]	@ 0x40
 800023e:	4b50      	ldr	r3, [pc, #320]	@ (8000380 <main+0x234>)
 8000240:	781a      	ldrb	r2, [r3, #0]
 8000242:	4b4e      	ldr	r3, [pc, #312]	@ (800037c <main+0x230>)
 8000244:	701a      	strb	r2, [r3, #0]
 8000246:	4b4e      	ldr	r3, [pc, #312]	@ (8000380 <main+0x234>)
 8000248:	785a      	ldrb	r2, [r3, #1]
 800024a:	4b4c      	ldr	r3, [pc, #304]	@ (800037c <main+0x230>)
 800024c:	705a      	strb	r2, [r3, #1]
 800024e:	4b4c      	ldr	r3, [pc, #304]	@ (8000380 <main+0x234>)
 8000250:	789a      	ldrb	r2, [r3, #2]
 8000252:	4b4a      	ldr	r3, [pc, #296]	@ (800037c <main+0x230>)
 8000254:	709a      	strb	r2, [r3, #2]
 8000256:	4b4a      	ldr	r3, [pc, #296]	@ (8000380 <main+0x234>)
 8000258:	78da      	ldrb	r2, [r3, #3]
 800025a:	4b48      	ldr	r3, [pc, #288]	@ (800037c <main+0x230>)
 800025c:	70da      	strb	r2, [r3, #3]
 800025e:	4b48      	ldr	r3, [pc, #288]	@ (8000380 <main+0x234>)
 8000260:	791a      	ldrb	r2, [r3, #4]
 8000262:	4b46      	ldr	r3, [pc, #280]	@ (800037c <main+0x230>)
 8000264:	711a      	strb	r2, [r3, #4]
 8000266:	4b46      	ldr	r3, [pc, #280]	@ (8000380 <main+0x234>)
 8000268:	795a      	ldrb	r2, [r3, #5]
 800026a:	4b44      	ldr	r3, [pc, #272]	@ (800037c <main+0x230>)
 800026c:	715a      	strb	r2, [r3, #5]
 800026e:	4b44      	ldr	r3, [pc, #272]	@ (8000380 <main+0x234>)
 8000270:	799a      	ldrb	r2, [r3, #6]
 8000272:	4b42      	ldr	r3, [pc, #264]	@ (800037c <main+0x230>)
 8000274:	719a      	strb	r2, [r3, #6]
 8000276:	4b41      	ldr	r3, [pc, #260]	@ (800037c <main+0x230>)
 8000278:	781b      	ldrb	r3, [r3, #0]
 800027a:	3b28      	subs	r3, #40	@ 0x28
 800027c:	2232      	movs	r2, #50	@ 0x32
 800027e:	fb02 f303 	mul.w	r3, r2, r3
 8000282:	f503 627a 	add.w	r2, r3, #4000	@ 0xfa0
 8000286:	4b3b      	ldr	r3, [pc, #236]	@ (8000374 <main+0x228>)
 8000288:	681b      	ldr	r3, [r3, #0]
 800028a:	635a      	str	r2, [r3, #52]	@ 0x34
 800028c:	4b3b      	ldr	r3, [pc, #236]	@ (800037c <main+0x230>)
 800028e:	785b      	ldrb	r3, [r3, #1]
 8000290:	3b28      	subs	r3, #40	@ 0x28
 8000292:	2232      	movs	r2, #50	@ 0x32
 8000294:	fb02 f303 	mul.w	r3, r2, r3
 8000298:	f503 627a 	add.w	r2, r3, #4000	@ 0xfa0
 800029c:	4b35      	ldr	r3, [pc, #212]	@ (8000374 <main+0x228>)
 800029e:	681b      	ldr	r3, [r3, #0]
 80002a0:	639a      	str	r2, [r3, #56]	@ 0x38
 80002a2:	4b36      	ldr	r3, [pc, #216]	@ (800037c <main+0x230>)
 80002a4:	789b      	ldrb	r3, [r3, #2]
 80002a6:	3b28      	subs	r3, #40	@ 0x28
 80002a8:	2232      	movs	r2, #50	@ 0x32
 80002aa:	fb02 f303 	mul.w	r3, r2, r3
 80002ae:	f503 627a 	add.w	r2, r3, #4000	@ 0xfa0
 80002b2:	4b30      	ldr	r3, [pc, #192]	@ (8000374 <main+0x228>)
 80002b4:	681b      	ldr	r3, [r3, #0]
 80002b6:	63da      	str	r2, [r3, #60]	@ 0x3c
 80002b8:	4b30      	ldr	r3, [pc, #192]	@ (800037c <main+0x230>)
 80002ba:	78db      	ldrb	r3, [r3, #3]
 80002bc:	3b28      	subs	r3, #40	@ 0x28
 80002be:	2232      	movs	r2, #50	@ 0x32
 80002c0:	fb02 f303 	mul.w	r3, r2, r3
 80002c4:	f503 627a 	add.w	r2, r3, #4000	@ 0xfa0
 80002c8:	4b2a      	ldr	r3, [pc, #168]	@ (8000374 <main+0x228>)
 80002ca:	681b      	ldr	r3, [r3, #0]
 80002cc:	641a      	str	r2, [r3, #64]	@ 0x40
 80002ce:	4b2b      	ldr	r3, [pc, #172]	@ (800037c <main+0x230>)
 80002d0:	791b      	ldrb	r3, [r3, #4]
 80002d2:	3b28      	subs	r3, #40	@ 0x28
 80002d4:	2232      	movs	r2, #50	@ 0x32
 80002d6:	fb02 f303 	mul.w	r3, r2, r3
 80002da:	f503 627a 	add.w	r2, r3, #4000	@ 0xfa0
 80002de:	4b26      	ldr	r3, [pc, #152]	@ (8000378 <main+0x22c>)
 80002e0:	681b      	ldr	r3, [r3, #0]
 80002e2:	635a      	str	r2, [r3, #52]	@ 0x34
 80002e4:	4b25      	ldr	r3, [pc, #148]	@ (800037c <main+0x230>)
 80002e6:	795b      	ldrb	r3, [r3, #5]
 80002e8:	3b28      	subs	r3, #40	@ 0x28
 80002ea:	2232      	movs	r2, #50	@ 0x32
 80002ec:	fb02 f303 	mul.w	r3, r2, r3
 80002f0:	f503 627a 	add.w	r2, r3, #4000	@ 0xfa0
 80002f4:	4b20      	ldr	r3, [pc, #128]	@ (8000378 <main+0x22c>)
 80002f6:	681b      	ldr	r3, [r3, #0]
 80002f8:	639a      	str	r2, [r3, #56]	@ 0x38
 80002fa:	4b20      	ldr	r3, [pc, #128]	@ (800037c <main+0x230>)
 80002fc:	799b      	ldrb	r3, [r3, #6]
 80002fe:	3b28      	subs	r3, #40	@ 0x28
 8000300:	2232      	movs	r2, #50	@ 0x32
 8000302:	fb02 f303 	mul.w	r3, r2, r3
 8000306:	f503 627a 	add.w	r2, r3, #4000	@ 0xfa0
 800030a:	4b1b      	ldr	r3, [pc, #108]	@ (8000378 <main+0x22c>)
 800030c:	681b      	ldr	r3, [r3, #0]
 800030e:	63da      	str	r2, [r3, #60]	@ 0x3c
 8000310:	e0f3      	b.n	80004fa <main+0x3ae>
 8000312:	4b1b      	ldr	r3, [pc, #108]	@ (8000380 <main+0x234>)
 8000314:	79db      	ldrb	r3, [r3, #7]
 8000316:	2b00      	cmp	r3, #0
 8000318:	f000 80ef 	beq.w	80004fa <main+0x3ae>
 800031c:	2201      	movs	r2, #1
 800031e:	f44f 5100 	mov.w	r1, #8192	@ 0x2000
 8000322:	4812      	ldr	r0, [pc, #72]	@ (800036c <main+0x220>)
 8000324:	f001 f8f6 	bl	8001514 <HAL_GPIO_WritePin>
 8000328:	4b11      	ldr	r3, [pc, #68]	@ (8000370 <main+0x224>)
 800032a:	681b      	ldr	r3, [r3, #0]
 800032c:	f641 723f 	movw	r2, #7999	@ 0x1f3f
 8000330:	641a      	str	r2, [r3, #64]	@ 0x40
 8000332:	e09b      	b.n	800046c <main+0x320>
 8000334:	4b14      	ldr	r3, [pc, #80]	@ (8000388 <main+0x23c>)
 8000336:	681b      	ldr	r3, [r3, #0]
 8000338:	4a10      	ldr	r2, [pc, #64]	@ (800037c <main+0x230>)
 800033a:	5cd3      	ldrb	r3, [r2, r3]
 800033c:	2b50      	cmp	r3, #80	@ 0x50
 800033e:	d039      	beq.n	80003b4 <main+0x268>
 8000340:	4b11      	ldr	r3, [pc, #68]	@ (8000388 <main+0x23c>)
 8000342:	681b      	ldr	r3, [r3, #0]
 8000344:	4a0d      	ldr	r2, [pc, #52]	@ (800037c <main+0x230>)
 8000346:	5cd3      	ldrb	r3, [r2, r3]
 8000348:	2b50      	cmp	r3, #80	@ 0x50
 800034a:	d91f      	bls.n	800038c <main+0x240>
 800034c:	4b0e      	ldr	r3, [pc, #56]	@ (8000388 <main+0x23c>)
 800034e:	681b      	ldr	r3, [r3, #0]
 8000350:	4a0a      	ldr	r2, [pc, #40]	@ (800037c <main+0x230>)
 8000352:	5cd3      	ldrb	r3, [r2, r3]
 8000354:	2b78      	cmp	r3, #120	@ 0x78
 8000356:	d819      	bhi.n	800038c <main+0x240>
 8000358:	4b0b      	ldr	r3, [pc, #44]	@ (8000388 <main+0x23c>)
 800035a:	681b      	ldr	r3, [r3, #0]
 800035c:	4a07      	ldr	r2, [pc, #28]	@ (800037c <main+0x230>)
 800035e:	5cd2      	ldrb	r2, [r2, r3]
 8000360:	3a01      	subs	r2, #1
 8000362:	b2d1      	uxtb	r1, r2
 8000364:	4a05      	ldr	r2, [pc, #20]	@ (800037c <main+0x230>)
 8000366:	54d1      	strb	r1, [r2, r3]
 8000368:	e024      	b.n	80003b4 <main+0x268>
 800036a:	bf00      	nop
 800036c:	40011000 	.word	0x40011000
 8000370:	2000002c 	.word	0x2000002c
 8000374:	20000074 	.word	0x20000074
 8000378:	200000bc 	.word	0x200000bc
 800037c:	20000150 	.word	0x20000150
 8000380:	20000148 	.word	0x20000148
 8000384:	20000104 	.word	0x20000104
 8000388:	20000158 	.word	0x20000158
 800038c:	4b71      	ldr	r3, [pc, #452]	@ (8000554 <main+0x408>)
 800038e:	681b      	ldr	r3, [r3, #0]
 8000390:	4a71      	ldr	r2, [pc, #452]	@ (8000558 <main+0x40c>)
 8000392:	5cd3      	ldrb	r3, [r2, r3]
 8000394:	2b4f      	cmp	r3, #79	@ 0x4f
 8000396:	d80d      	bhi.n	80003b4 <main+0x268>
 8000398:	4b6e      	ldr	r3, [pc, #440]	@ (8000554 <main+0x408>)
 800039a:	681b      	ldr	r3, [r3, #0]
 800039c:	4a6e      	ldr	r2, [pc, #440]	@ (8000558 <main+0x40c>)
 800039e:	5cd3      	ldrb	r3, [r2, r3]
 80003a0:	2b27      	cmp	r3, #39	@ 0x27
 80003a2:	d907      	bls.n	80003b4 <main+0x268>
 80003a4:	4b6b      	ldr	r3, [pc, #428]	@ (8000554 <main+0x408>)
 80003a6:	681b      	ldr	r3, [r3, #0]
 80003a8:	4a6b      	ldr	r2, [pc, #428]	@ (8000558 <main+0x40c>)
 80003aa:	5cd2      	ldrb	r2, [r2, r3]
 80003ac:	3201      	adds	r2, #1
 80003ae:	b2d1      	uxtb	r1, r2
 80003b0:	4a69      	ldr	r2, [pc, #420]	@ (8000558 <main+0x40c>)
 80003b2:	54d1      	strb	r1, [r2, r3]
 80003b4:	4b67      	ldr	r3, [pc, #412]	@ (8000554 <main+0x408>)
 80003b6:	681b      	ldr	r3, [r3, #0]
 80003b8:	3301      	adds	r3, #1
 80003ba:	4a66      	ldr	r2, [pc, #408]	@ (8000554 <main+0x408>)
 80003bc:	6013      	str	r3, [r2, #0]
 80003be:	4b65      	ldr	r3, [pc, #404]	@ (8000554 <main+0x408>)
 80003c0:	681b      	ldr	r3, [r3, #0]
 80003c2:	2b06      	cmp	r3, #6
 80003c4:	ddb6      	ble.n	8000334 <main+0x1e8>
 80003c6:	4b64      	ldr	r3, [pc, #400]	@ (8000558 <main+0x40c>)
 80003c8:	781b      	ldrb	r3, [r3, #0]
 80003ca:	3b28      	subs	r3, #40	@ 0x28
 80003cc:	2232      	movs	r2, #50	@ 0x32
 80003ce:	fb02 f303 	mul.w	r3, r2, r3
 80003d2:	f503 627a 	add.w	r2, r3, #4000	@ 0xfa0
 80003d6:	4b61      	ldr	r3, [pc, #388]	@ (800055c <main+0x410>)
 80003d8:	681b      	ldr	r3, [r3, #0]
 80003da:	635a      	str	r2, [r3, #52]	@ 0x34
 80003dc:	4b5e      	ldr	r3, [pc, #376]	@ (8000558 <main+0x40c>)
 80003de:	785b      	ldrb	r3, [r3, #1]
 80003e0:	3b28      	subs	r3, #40	@ 0x28
 80003e2:	2232      	movs	r2, #50	@ 0x32
 80003e4:	fb02 f303 	mul.w	r3, r2, r3
 80003e8:	f503 627a 	add.w	r2, r3, #4000	@ 0xfa0
 80003ec:	4b5b      	ldr	r3, [pc, #364]	@ (800055c <main+0x410>)
 80003ee:	681b      	ldr	r3, [r3, #0]
 80003f0:	639a      	str	r2, [r3, #56]	@ 0x38
 80003f2:	4b59      	ldr	r3, [pc, #356]	@ (8000558 <main+0x40c>)
 80003f4:	789b      	ldrb	r3, [r3, #2]
 80003f6:	3b28      	subs	r3, #40	@ 0x28
 80003f8:	2232      	movs	r2, #50	@ 0x32
 80003fa:	fb02 f303 	mul.w	r3, r2, r3
 80003fe:	f503 627a 	add.w	r2, r3, #4000	@ 0xfa0
 8000402:	4b56      	ldr	r3, [pc, #344]	@ (800055c <main+0x410>)
 8000404:	681b      	ldr	r3, [r3, #0]
 8000406:	63da      	str	r2, [r3, #60]	@ 0x3c
 8000408:	4b53      	ldr	r3, [pc, #332]	@ (8000558 <main+0x40c>)
 800040a:	78db      	ldrb	r3, [r3, #3]
 800040c:	3b28      	subs	r3, #40	@ 0x28
 800040e:	2232      	movs	r2, #50	@ 0x32
 8000410:	fb02 f303 	mul.w	r3, r2, r3
 8000414:	f503 627a 	add.w	r2, r3, #4000	@ 0xfa0
 8000418:	4b50      	ldr	r3, [pc, #320]	@ (800055c <main+0x410>)
 800041a:	681b      	ldr	r3, [r3, #0]
 800041c:	641a      	str	r2, [r3, #64]	@ 0x40
 800041e:	4b4e      	ldr	r3, [pc, #312]	@ (8000558 <main+0x40c>)
 8000420:	791b      	ldrb	r3, [r3, #4]
 8000422:	3b28      	subs	r3, #40	@ 0x28
 8000424:	2232      	movs	r2, #50	@ 0x32
 8000426:	fb02 f303 	mul.w	r3, r2, r3
 800042a:	f503 627a 	add.w	r2, r3, #4000	@ 0xfa0
 800042e:	4b4c      	ldr	r3, [pc, #304]	@ (8000560 <main+0x414>)
 8000430:	681b      	ldr	r3, [r3, #0]
 8000432:	635a      	str	r2, [r3, #52]	@ 0x34
 8000434:	4b48      	ldr	r3, [pc, #288]	@ (8000558 <main+0x40c>)
 8000436:	795b      	ldrb	r3, [r3, #5]
 8000438:	3b28      	subs	r3, #40	@ 0x28
 800043a:	2232      	movs	r2, #50	@ 0x32
 800043c:	fb02 f303 	mul.w	r3, r2, r3
 8000440:	f503 627a 	add.w	r2, r3, #4000	@ 0xfa0
 8000444:	4b46      	ldr	r3, [pc, #280]	@ (8000560 <main+0x414>)
 8000446:	681b      	ldr	r3, [r3, #0]
 8000448:	639a      	str	r2, [r3, #56]	@ 0x38
 800044a:	4b43      	ldr	r3, [pc, #268]	@ (8000558 <main+0x40c>)
 800044c:	799b      	ldrb	r3, [r3, #6]
 800044e:	3b28      	subs	r3, #40	@ 0x28
 8000450:	2232      	movs	r2, #50	@ 0x32
 8000452:	fb02 f303 	mul.w	r3, r2, r3
 8000456:	f503 627a 	add.w	r2, r3, #4000	@ 0xfa0
 800045a:	4b41      	ldr	r3, [pc, #260]	@ (8000560 <main+0x414>)
 800045c:	681b      	ldr	r3, [r3, #0]
 800045e:	63da      	str	r2, [r3, #60]	@ 0x3c
 8000460:	4b3c      	ldr	r3, [pc, #240]	@ (8000554 <main+0x408>)
 8000462:	2200      	movs	r2, #0
 8000464:	601a      	str	r2, [r3, #0]
 8000466:	2032      	movs	r0, #50	@ 0x32
 8000468:	f000 fdc8 	bl	8000ffc <HAL_Delay>
 800046c:	4b3a      	ldr	r3, [pc, #232]	@ (8000558 <main+0x40c>)
 800046e:	781b      	ldrb	r3, [r3, #0]
 8000470:	2b50      	cmp	r3, #80	@ 0x50
 8000472:	d1a4      	bne.n	80003be <main+0x272>
 8000474:	4b38      	ldr	r3, [pc, #224]	@ (8000558 <main+0x40c>)
 8000476:	785b      	ldrb	r3, [r3, #1]
 8000478:	2b50      	cmp	r3, #80	@ 0x50
 800047a:	d1a0      	bne.n	80003be <main+0x272>
 800047c:	4b36      	ldr	r3, [pc, #216]	@ (8000558 <main+0x40c>)
 800047e:	789b      	ldrb	r3, [r3, #2]
 8000480:	2b50      	cmp	r3, #80	@ 0x50
 8000482:	d19c      	bne.n	80003be <main+0x272>
 8000484:	4b34      	ldr	r3, [pc, #208]	@ (8000558 <main+0x40c>)
 8000486:	78db      	ldrb	r3, [r3, #3]
 8000488:	2b50      	cmp	r3, #80	@ 0x50
 800048a:	d198      	bne.n	80003be <main+0x272>
 800048c:	4b32      	ldr	r3, [pc, #200]	@ (8000558 <main+0x40c>)
 800048e:	791b      	ldrb	r3, [r3, #4]
 8000490:	2b50      	cmp	r3, #80	@ 0x50
 8000492:	d194      	bne.n	80003be <main+0x272>
 8000494:	4b30      	ldr	r3, [pc, #192]	@ (8000558 <main+0x40c>)
 8000496:	795b      	ldrb	r3, [r3, #5]
 8000498:	2b50      	cmp	r3, #80	@ 0x50
 800049a:	d190      	bne.n	80003be <main+0x272>
 800049c:	4b2e      	ldr	r3, [pc, #184]	@ (8000558 <main+0x40c>)
 800049e:	799b      	ldrb	r3, [r3, #6]
 80004a0:	2b50      	cmp	r3, #80	@ 0x50
 80004a2:	d18c      	bne.n	80003be <main+0x272>
 80004a4:	4b2d      	ldr	r3, [pc, #180]	@ (800055c <main+0x410>)
 80004a6:	681b      	ldr	r3, [r3, #0]
 80004a8:	2200      	movs	r2, #0
 80004aa:	635a      	str	r2, [r3, #52]	@ 0x34
 80004ac:	4b2b      	ldr	r3, [pc, #172]	@ (800055c <main+0x410>)
 80004ae:	681b      	ldr	r3, [r3, #0]
 80004b0:	2200      	movs	r2, #0
 80004b2:	639a      	str	r2, [r3, #56]	@ 0x38
 80004b4:	4b29      	ldr	r3, [pc, #164]	@ (800055c <main+0x410>)
 80004b6:	681b      	ldr	r3, [r3, #0]
 80004b8:	2200      	movs	r2, #0
 80004ba:	63da      	str	r2, [r3, #60]	@ 0x3c
 80004bc:	4b27      	ldr	r3, [pc, #156]	@ (800055c <main+0x410>)
 80004be:	681b      	ldr	r3, [r3, #0]
 80004c0:	2200      	movs	r2, #0
 80004c2:	641a      	str	r2, [r3, #64]	@ 0x40
 80004c4:	4b26      	ldr	r3, [pc, #152]	@ (8000560 <main+0x414>)
 80004c6:	681b      	ldr	r3, [r3, #0]
 80004c8:	2200      	movs	r2, #0
 80004ca:	635a      	str	r2, [r3, #52]	@ 0x34
 80004cc:	4b24      	ldr	r3, [pc, #144]	@ (8000560 <main+0x414>)
 80004ce:	681b      	ldr	r3, [r3, #0]
 80004d0:	2200      	movs	r2, #0
 80004d2:	639a      	str	r2, [r3, #56]	@ 0x38
 80004d4:	4b22      	ldr	r3, [pc, #136]	@ (8000560 <main+0x414>)
 80004d6:	681b      	ldr	r3, [r3, #0]
 80004d8:	2200      	movs	r2, #0
 80004da:	63da      	str	r2, [r3, #60]	@ 0x3c
 80004dc:	2300      	movs	r3, #0
 80004de:	607b      	str	r3, [r7, #4]
 80004e0:	e008      	b.n	80004f4 <main+0x3a8>
 80004e2:	2314      	movs	r3, #20
 80004e4:	2201      	movs	r2, #1
 80004e6:	491f      	ldr	r1, [pc, #124]	@ (8000564 <main+0x418>)
 80004e8:	481f      	ldr	r0, [pc, #124]	@ (8000568 <main+0x41c>)
 80004ea:	f002 fab1 	bl	8002a50 <HAL_UART_Transmit>
 80004ee:	687b      	ldr	r3, [r7, #4]
 80004f0:	3301      	adds	r3, #1
 80004f2:	607b      	str	r3, [r7, #4]
 80004f4:	687b      	ldr	r3, [r7, #4]
 80004f6:	2b1d      	cmp	r3, #29
 80004f8:	ddf3      	ble.n	80004e2 <main+0x396>
 80004fa:	2207      	movs	r2, #7
 80004fc:	2100      	movs	r1, #0
 80004fe:	481b      	ldr	r0, [pc, #108]	@ (800056c <main+0x420>)
 8000500:	f002 fcb2 	bl	8002e68 <memset>
 8000504:	e67e      	b.n	8000204 <main+0xb8>
 8000506:	2201      	movs	r2, #1
 8000508:	f44f 5100 	mov.w	r1, #8192	@ 0x2000
 800050c:	4818      	ldr	r0, [pc, #96]	@ (8000570 <main+0x424>)
 800050e:	f001 f801 	bl	8001514 <HAL_GPIO_WritePin>
 8000512:	4b18      	ldr	r3, [pc, #96]	@ (8000574 <main+0x428>)
 8000514:	681b      	ldr	r3, [r3, #0]
 8000516:	2200      	movs	r2, #0
 8000518:	641a      	str	r2, [r3, #64]	@ 0x40
 800051a:	e09d      	b.n	8000658 <main+0x50c>
 800051c:	4b0d      	ldr	r3, [pc, #52]	@ (8000554 <main+0x408>)
 800051e:	681b      	ldr	r3, [r3, #0]
 8000520:	4a0d      	ldr	r2, [pc, #52]	@ (8000558 <main+0x40c>)
 8000522:	5cd3      	ldrb	r3, [r2, r3]
 8000524:	2b50      	cmp	r3, #80	@ 0x50
 8000526:	d03b      	beq.n	80005a0 <main+0x454>
 8000528:	4b0a      	ldr	r3, [pc, #40]	@ (8000554 <main+0x408>)
 800052a:	681b      	ldr	r3, [r3, #0]
 800052c:	4a0a      	ldr	r2, [pc, #40]	@ (8000558 <main+0x40c>)
 800052e:	5cd3      	ldrb	r3, [r2, r3]
 8000530:	2b50      	cmp	r3, #80	@ 0x50
 8000532:	d921      	bls.n	8000578 <main+0x42c>
 8000534:	4b07      	ldr	r3, [pc, #28]	@ (8000554 <main+0x408>)
 8000536:	681b      	ldr	r3, [r3, #0]
 8000538:	4a07      	ldr	r2, [pc, #28]	@ (8000558 <main+0x40c>)
 800053a:	5cd3      	ldrb	r3, [r2, r3]
 800053c:	2b78      	cmp	r3, #120	@ 0x78
 800053e:	d81b      	bhi.n	8000578 <main+0x42c>
 8000540:	4b04      	ldr	r3, [pc, #16]	@ (8000554 <main+0x408>)
 8000542:	681b      	ldr	r3, [r3, #0]
 8000544:	4a04      	ldr	r2, [pc, #16]	@ (8000558 <main+0x40c>)
 8000546:	5cd2      	ldrb	r2, [r2, r3]
 8000548:	3a01      	subs	r2, #1
 800054a:	b2d1      	uxtb	r1, r2
 800054c:	4a02      	ldr	r2, [pc, #8]	@ (8000558 <main+0x40c>)
 800054e:	54d1      	strb	r1, [r2, r3]
 8000550:	e026      	b.n	80005a0 <main+0x454>
 8000552:	bf00      	nop
 8000554:	20000158 	.word	0x20000158
 8000558:	20000150 	.word	0x20000150
 800055c:	20000074 	.word	0x20000074
 8000560:	200000bc 	.word	0x200000bc
 8000564:	20000000 	.word	0x20000000
 8000568:	20000104 	.word	0x20000104
 800056c:	20000148 	.word	0x20000148
 8000570:	40011000 	.word	0x40011000
 8000574:	2000002c 	.word	0x2000002c
 8000578:	4b54      	ldr	r3, [pc, #336]	@ (80006cc <main+0x580>)
 800057a:	681b      	ldr	r3, [r3, #0]
 800057c:	4a54      	ldr	r2, [pc, #336]	@ (80006d0 <main+0x584>)
 800057e:	5cd3      	ldrb	r3, [r2, r3]
 8000580:	2b4f      	cmp	r3, #79	@ 0x4f
 8000582:	d80d      	bhi.n	80005a0 <main+0x454>
 8000584:	4b51      	ldr	r3, [pc, #324]	@ (80006cc <main+0x580>)
 8000586:	681b      	ldr	r3, [r3, #0]
 8000588:	4a51      	ldr	r2, [pc, #324]	@ (80006d0 <main+0x584>)
 800058a:	5cd3      	ldrb	r3, [r2, r3]
 800058c:	2b27      	cmp	r3, #39	@ 0x27
 800058e:	d907      	bls.n	80005a0 <main+0x454>
 8000590:	4b4e      	ldr	r3, [pc, #312]	@ (80006cc <main+0x580>)
 8000592:	681b      	ldr	r3, [r3, #0]
 8000594:	4a4e      	ldr	r2, [pc, #312]	@ (80006d0 <main+0x584>)
 8000596:	5cd2      	ldrb	r2, [r2, r3]
 8000598:	3201      	adds	r2, #1
 800059a:	b2d1      	uxtb	r1, r2
 800059c:	4a4c      	ldr	r2, [pc, #304]	@ (80006d0 <main+0x584>)
 800059e:	54d1      	strb	r1, [r2, r3]
 80005a0:	4b4a      	ldr	r3, [pc, #296]	@ (80006cc <main+0x580>)
 80005a2:	681b      	ldr	r3, [r3, #0]
 80005a4:	3301      	adds	r3, #1
 80005a6:	4a49      	ldr	r2, [pc, #292]	@ (80006cc <main+0x580>)
 80005a8:	6013      	str	r3, [r2, #0]
 80005aa:	4b48      	ldr	r3, [pc, #288]	@ (80006cc <main+0x580>)
 80005ac:	681b      	ldr	r3, [r3, #0]
 80005ae:	2b06      	cmp	r3, #6
 80005b0:	ddb4      	ble.n	800051c <main+0x3d0>
 80005b2:	4b47      	ldr	r3, [pc, #284]	@ (80006d0 <main+0x584>)
 80005b4:	781b      	ldrb	r3, [r3, #0]
 80005b6:	3b28      	subs	r3, #40	@ 0x28
 80005b8:	2232      	movs	r2, #50	@ 0x32
 80005ba:	fb02 f303 	mul.w	r3, r2, r3
 80005be:	f503 627a 	add.w	r2, r3, #4000	@ 0xfa0
 80005c2:	4b44      	ldr	r3, [pc, #272]	@ (80006d4 <main+0x588>)
 80005c4:	681b      	ldr	r3, [r3, #0]
 80005c6:	635a      	str	r2, [r3, #52]	@ 0x34
 80005c8:	4b41      	ldr	r3, [pc, #260]	@ (80006d0 <main+0x584>)
 80005ca:	785b      	ldrb	r3, [r3, #1]
 80005cc:	3b28      	subs	r3, #40	@ 0x28
 80005ce:	2232      	movs	r2, #50	@ 0x32
 80005d0:	fb02 f303 	mul.w	r3, r2, r3
 80005d4:	f503 627a 	add.w	r2, r3, #4000	@ 0xfa0
 80005d8:	4b3e      	ldr	r3, [pc, #248]	@ (80006d4 <main+0x588>)
 80005da:	681b      	ldr	r3, [r3, #0]
 80005dc:	639a      	str	r2, [r3, #56]	@ 0x38
 80005de:	4b3c      	ldr	r3, [pc, #240]	@ (80006d0 <main+0x584>)
 80005e0:	789b      	ldrb	r3, [r3, #2]
 80005e2:	3b28      	subs	r3, #40	@ 0x28
 80005e4:	2232      	movs	r2, #50	@ 0x32
 80005e6:	fb02 f303 	mul.w	r3, r2, r3
 80005ea:	f503 627a 	add.w	r2, r3, #4000	@ 0xfa0
 80005ee:	4b39      	ldr	r3, [pc, #228]	@ (80006d4 <main+0x588>)
 80005f0:	681b      	ldr	r3, [r3, #0]
 80005f2:	63da      	str	r2, [r3, #60]	@ 0x3c
 80005f4:	4b36      	ldr	r3, [pc, #216]	@ (80006d0 <main+0x584>)
 80005f6:	78db      	ldrb	r3, [r3, #3]
 80005f8:	3b28      	subs	r3, #40	@ 0x28
 80005fa:	2232      	movs	r2, #50	@ 0x32
 80005fc:	fb02 f303 	mul.w	r3, r2, r3
 8000600:	f503 627a 	add.w	r2, r3, #4000	@ 0xfa0
 8000604:	4b33      	ldr	r3, [pc, #204]	@ (80006d4 <main+0x588>)
 8000606:	681b      	ldr	r3, [r3, #0]
 8000608:	641a      	str	r2, [r3, #64]	@ 0x40
 800060a:	4b31      	ldr	r3, [pc, #196]	@ (80006d0 <main+0x584>)
 800060c:	791b      	ldrb	r3, [r3, #4]
 800060e:	3b28      	subs	r3, #40	@ 0x28
 8000610:	2232      	movs	r2, #50	@ 0x32
 8000612:	fb02 f303 	mul.w	r3, r2, r3
 8000616:	f503 627a 	add.w	r2, r3, #4000	@ 0xfa0
 800061a:	4b2f      	ldr	r3, [pc, #188]	@ (80006d8 <main+0x58c>)
 800061c:	681b      	ldr	r3, [r3, #0]
 800061e:	635a      	str	r2, [r3, #52]	@ 0x34
 8000620:	4b2b      	ldr	r3, [pc, #172]	@ (80006d0 <main+0x584>)
 8000622:	795b      	ldrb	r3, [r3, #5]
 8000624:	3b28      	subs	r3, #40	@ 0x28
 8000626:	2232      	movs	r2, #50	@ 0x32
 8000628:	fb02 f303 	mul.w	r3, r2, r3
 800062c:	f503 627a 	add.w	r2, r3, #4000	@ 0xfa0
 8000630:	4b29      	ldr	r3, [pc, #164]	@ (80006d8 <main+0x58c>)
 8000632:	681b      	ldr	r3, [r3, #0]
 8000634:	639a      	str	r2, [r3, #56]	@ 0x38
 8000636:	4b26      	ldr	r3, [pc, #152]	@ (80006d0 <main+0x584>)
 8000638:	799b      	ldrb	r3, [r3, #6]
 800063a:	3b28      	subs	r3, #40	@ 0x28
 800063c:	2232      	movs	r2, #50	@ 0x32
 800063e:	fb02 f303 	mul.w	r3, r2, r3
 8000642:	f503 627a 	add.w	r2, r3, #4000	@ 0xfa0
 8000646:	4b24      	ldr	r3, [pc, #144]	@ (80006d8 <main+0x58c>)
 8000648:	681b      	ldr	r3, [r3, #0]
 800064a:	63da      	str	r2, [r3, #60]	@ 0x3c
 800064c:	4b1f      	ldr	r3, [pc, #124]	@ (80006cc <main+0x580>)
 800064e:	2200      	movs	r2, #0
 8000650:	601a      	str	r2, [r3, #0]
 8000652:	2032      	movs	r0, #50	@ 0x32
 8000654:	f000 fcd2 	bl	8000ffc <HAL_Delay>
 8000658:	4b1d      	ldr	r3, [pc, #116]	@ (80006d0 <main+0x584>)
 800065a:	781b      	ldrb	r3, [r3, #0]
 800065c:	2b50      	cmp	r3, #80	@ 0x50
 800065e:	d1a4      	bne.n	80005aa <main+0x45e>
 8000660:	4b1b      	ldr	r3, [pc, #108]	@ (80006d0 <main+0x584>)
 8000662:	785b      	ldrb	r3, [r3, #1]
 8000664:	2b50      	cmp	r3, #80	@ 0x50
 8000666:	d1a0      	bne.n	80005aa <main+0x45e>
 8000668:	4b19      	ldr	r3, [pc, #100]	@ (80006d0 <main+0x584>)
 800066a:	789b      	ldrb	r3, [r3, #2]
 800066c:	2b50      	cmp	r3, #80	@ 0x50
 800066e:	d19c      	bne.n	80005aa <main+0x45e>
 8000670:	4b17      	ldr	r3, [pc, #92]	@ (80006d0 <main+0x584>)
 8000672:	78db      	ldrb	r3, [r3, #3]
 8000674:	2b50      	cmp	r3, #80	@ 0x50
 8000676:	d198      	bne.n	80005aa <main+0x45e>
 8000678:	4b15      	ldr	r3, [pc, #84]	@ (80006d0 <main+0x584>)
 800067a:	791b      	ldrb	r3, [r3, #4]
 800067c:	2b50      	cmp	r3, #80	@ 0x50
 800067e:	d194      	bne.n	80005aa <main+0x45e>
 8000680:	4b13      	ldr	r3, [pc, #76]	@ (80006d0 <main+0x584>)
 8000682:	795b      	ldrb	r3, [r3, #5]
 8000684:	2b50      	cmp	r3, #80	@ 0x50
 8000686:	d190      	bne.n	80005aa <main+0x45e>
 8000688:	4b11      	ldr	r3, [pc, #68]	@ (80006d0 <main+0x584>)
 800068a:	799b      	ldrb	r3, [r3, #6]
 800068c:	2b50      	cmp	r3, #80	@ 0x50
 800068e:	d18c      	bne.n	80005aa <main+0x45e>
 8000690:	4b10      	ldr	r3, [pc, #64]	@ (80006d4 <main+0x588>)
 8000692:	681b      	ldr	r3, [r3, #0]
 8000694:	2200      	movs	r2, #0
 8000696:	635a      	str	r2, [r3, #52]	@ 0x34
 8000698:	4b0e      	ldr	r3, [pc, #56]	@ (80006d4 <main+0x588>)
 800069a:	681b      	ldr	r3, [r3, #0]
 800069c:	2200      	movs	r2, #0
 800069e:	639a      	str	r2, [r3, #56]	@ 0x38
 80006a0:	4b0c      	ldr	r3, [pc, #48]	@ (80006d4 <main+0x588>)
 80006a2:	681b      	ldr	r3, [r3, #0]
 80006a4:	2200      	movs	r2, #0
 80006a6:	63da      	str	r2, [r3, #60]	@ 0x3c
 80006a8:	4b0a      	ldr	r3, [pc, #40]	@ (80006d4 <main+0x588>)
 80006aa:	681b      	ldr	r3, [r3, #0]
 80006ac:	2200      	movs	r2, #0
 80006ae:	641a      	str	r2, [r3, #64]	@ 0x40
 80006b0:	4b09      	ldr	r3, [pc, #36]	@ (80006d8 <main+0x58c>)
 80006b2:	681b      	ldr	r3, [r3, #0]
 80006b4:	2200      	movs	r2, #0
 80006b6:	635a      	str	r2, [r3, #52]	@ 0x34
 80006b8:	4b07      	ldr	r3, [pc, #28]	@ (80006d8 <main+0x58c>)
 80006ba:	681b      	ldr	r3, [r3, #0]
 80006bc:	2200      	movs	r2, #0
 80006be:	639a      	str	r2, [r3, #56]	@ 0x38
 80006c0:	4b05      	ldr	r3, [pc, #20]	@ (80006d8 <main+0x58c>)
 80006c2:	681b      	ldr	r3, [r3, #0]
 80006c4:	2200      	movs	r2, #0
 80006c6:	63da      	str	r2, [r3, #60]	@ 0x3c
 80006c8:	e59c      	b.n	8000204 <main+0xb8>
 80006ca:	bf00      	nop
 80006cc:	20000158 	.word	0x20000158
 80006d0:	20000150 	.word	0x20000150
 80006d4:	20000074 	.word	0x20000074
 80006d8:	200000bc 	.word	0x200000bc

080006dc <SystemClock_Config>:
 80006dc:	b580      	push	{r7, lr}
 80006de:	b090      	sub	sp, #64	@ 0x40
 80006e0:	af00      	add	r7, sp, #0
 80006e2:	f107 0318 	add.w	r3, r7, #24
 80006e6:	2228      	movs	r2, #40	@ 0x28
 80006e8:	2100      	movs	r1, #0
 80006ea:	4618      	mov	r0, r3
 80006ec:	f002 fbbc 	bl	8002e68 <memset>
 80006f0:	1d3b      	adds	r3, r7, #4
 80006f2:	2200      	movs	r2, #0
 80006f4:	601a      	str	r2, [r3, #0]
 80006f6:	605a      	str	r2, [r3, #4]
 80006f8:	609a      	str	r2, [r3, #8]
 80006fa:	60da      	str	r2, [r3, #12]
 80006fc:	611a      	str	r2, [r3, #16]
 80006fe:	2302      	movs	r3, #2
 8000700:	61bb      	str	r3, [r7, #24]
 8000702:	2301      	movs	r3, #1
 8000704:	62bb      	str	r3, [r7, #40]	@ 0x28
 8000706:	2310      	movs	r3, #16
 8000708:	62fb      	str	r3, [r7, #44]	@ 0x2c
 800070a:	2302      	movs	r3, #2
 800070c:	637b      	str	r3, [r7, #52]	@ 0x34
 800070e:	2300      	movs	r3, #0
 8000710:	63bb      	str	r3, [r7, #56]	@ 0x38
 8000712:	f44f 13e0 	mov.w	r3, #1835008	@ 0x1c0000
 8000716:	63fb      	str	r3, [r7, #60]	@ 0x3c
 8000718:	f107 0318 	add.w	r3, r7, #24
 800071c:	4618      	mov	r0, r3
 800071e:	f000 ff11 	bl	8001544 <HAL_RCC_OscConfig>
 8000722:	4603      	mov	r3, r0
 8000724:	2b00      	cmp	r3, #0
 8000726:	d001      	beq.n	800072c <SystemClock_Config+0x50>
 8000728:	f000 fa5a 	bl	8000be0 <Error_Handler>
 800072c:	230f      	movs	r3, #15
 800072e:	607b      	str	r3, [r7, #4]
 8000730:	2302      	movs	r3, #2
 8000732:	60bb      	str	r3, [r7, #8]
 8000734:	2300      	movs	r3, #0
 8000736:	60fb      	str	r3, [r7, #12]
 8000738:	2300      	movs	r3, #0
 800073a:	613b      	str	r3, [r7, #16]
 800073c:	2300      	movs	r3, #0
 800073e:	617b      	str	r3, [r7, #20]
 8000740:	1d3b      	adds	r3, r7, #4
 8000742:	2101      	movs	r1, #1
 8000744:	4618      	mov	r0, r3
 8000746:	f001 f97f 	bl	8001a48 <HAL_RCC_ClockConfig>
 800074a:	4603      	mov	r3, r0
 800074c:	2b00      	cmp	r3, #0
 800074e:	d001      	beq.n	8000754 <SystemClock_Config+0x78>
 8000750:	f000 fa46 	bl	8000be0 <Error_Handler>
 8000754:	bf00      	nop
 8000756:	3740      	adds	r7, #64	@ 0x40
 8000758:	46bd      	mov	sp, r7
 800075a:	bd80      	pop	{r7, pc}

0800075c <MX_TIM1_Init>:
 800075c:	b580      	push	{r7, lr}
 800075e:	b096      	sub	sp, #88	@ 0x58
 8000760:	af00      	add	r7, sp, #0
 8000762:	f107 0348 	add.w	r3, r7, #72	@ 0x48
 8000766:	2200      	movs	r2, #0
 8000768:	601a      	str	r2, [r3, #0]
 800076a:	605a      	str	r2, [r3, #4]
 800076c:	609a      	str	r2, [r3, #8]
 800076e:	60da      	str	r2, [r3, #12]
 8000770:	f107 0340 	add.w	r3, r7, #64	@ 0x40
 8000774:	2200      	movs	r2, #0
 8000776:	601a      	str	r2, [r3, #0]
 8000778:	605a      	str	r2, [r3, #4]
 800077a:	f107 0324 	add.w	r3, r7, #36	@ 0x24
 800077e:	2200      	movs	r2, #0
 8000780:	601a      	str	r2, [r3, #0]
 8000782:	605a      	str	r2, [r3, #4]
 8000784:	609a      	str	r2, [r3, #8]
 8000786:	60da      	str	r2, [r3, #12]
 8000788:	611a      	str	r2, [r3, #16]
 800078a:	615a      	str	r2, [r3, #20]
 800078c:	619a      	str	r2, [r3, #24]
 800078e:	1d3b      	adds	r3, r7, #4
 8000790:	2220      	movs	r2, #32
 8000792:	2100      	movs	r1, #0
 8000794:	4618      	mov	r0, r3
 8000796:	f002 fb67 	bl	8002e68 <memset>
 800079a:	4b3d      	ldr	r3, [pc, #244]	@ (8000890 <MX_TIM1_Init+0x134>)
 800079c:	4a3d      	ldr	r2, [pc, #244]	@ (8000894 <MX_TIM1_Init+0x138>)
 800079e:	601a      	str	r2, [r3, #0]
 80007a0:	4b3b      	ldr	r3, [pc, #236]	@ (8000890 <MX_TIM1_Init+0x134>)
 80007a2:	2208      	movs	r2, #8
 80007a4:	605a      	str	r2, [r3, #4]
 80007a6:	4b3a      	ldr	r3, [pc, #232]	@ (8000890 <MX_TIM1_Init+0x134>)
 80007a8:	2200      	movs	r2, #0
 80007aa:	609a      	str	r2, [r3, #8]
 80007ac:	4b38      	ldr	r3, [pc, #224]	@ (8000890 <MX_TIM1_Init+0x134>)
 80007ae:	f641 723f 	movw	r2, #7999	@ 0x1f3f
 80007b2:	60da      	str	r2, [r3, #12]
 80007b4:	4b36      	ldr	r3, [pc, #216]	@ (8000890 <MX_TIM1_Init+0x134>)
 80007b6:	2200      	movs	r2, #0
 80007b8:	611a      	str	r2, [r3, #16]
 80007ba:	4b35      	ldr	r3, [pc, #212]	@ (8000890 <MX_TIM1_Init+0x134>)
 80007bc:	2200      	movs	r2, #0
 80007be:	615a      	str	r2, [r3, #20]
 80007c0:	4b33      	ldr	r3, [pc, #204]	@ (8000890 <MX_TIM1_Init+0x134>)
 80007c2:	2200      	movs	r2, #0
 80007c4:	619a      	str	r2, [r3, #24]
 80007c6:	4832      	ldr	r0, [pc, #200]	@ (8000890 <MX_TIM1_Init+0x134>)
 80007c8:	f001 fad6 	bl	8001d78 <HAL_TIM_Base_Init>
 80007cc:	4603      	mov	r3, r0
 80007ce:	2b00      	cmp	r3, #0
 80007d0:	d001      	beq.n	80007d6 <MX_TIM1_Init+0x7a>
 80007d2:	f000 fa05 	bl	8000be0 <Error_Handler>
 80007d6:	f44f 5380 	mov.w	r3, #4096	@ 0x1000
 80007da:	64bb      	str	r3, [r7, #72]	@ 0x48
 80007dc:	f107 0348 	add.w	r3, r7, #72	@ 0x48
 80007e0:	4619      	mov	r1, r3
 80007e2:	482b      	ldr	r0, [pc, #172]	@ (8000890 <MX_TIM1_Init+0x134>)
 80007e4:	f001 fcd0 	bl	8002188 <HAL_TIM_ConfigClockSource>
 80007e8:	4603      	mov	r3, r0
 80007ea:	2b00      	cmp	r3, #0
 80007ec:	d001      	beq.n	80007f2 <MX_TIM1_Init+0x96>
 80007ee:	f000 f9f7 	bl	8000be0 <Error_Handler>
 80007f2:	4827      	ldr	r0, [pc, #156]	@ (8000890 <MX_TIM1_Init+0x134>)
 80007f4:	f001 fb0f 	bl	8001e16 <HAL_TIM_PWM_Init>
 80007f8:	4603      	mov	r3, r0
 80007fa:	2b00      	cmp	r3, #0
 80007fc:	d001      	beq.n	8000802 <MX_TIM1_Init+0xa6>
 80007fe:	f000 f9ef 	bl	8000be0 <Error_Handler>
 8000802:	2300      	movs	r3, #0
 8000804:	643b      	str	r3, [r7, #64]	@ 0x40
 8000806:	2300      	movs	r3, #0
 8000808:	647b      	str	r3, [r7, #68]	@ 0x44
 800080a:	f107 0340 	add.w	r3, r7, #64	@ 0x40
 800080e:	4619      	mov	r1, r3
 8000810:	481f      	ldr	r0, [pc, #124]	@ (8000890 <MX_TIM1_Init+0x134>)
 8000812:	f002 f821 	bl	8002858 <HAL_TIMEx_MasterConfigSynchronization>
 8000816:	4603      	mov	r3, r0
 8000818:	2b00      	cmp	r3, #0
 800081a:	d001      	beq.n	8000820 <MX_TIM1_Init+0xc4>
 800081c:	f000 f9e0 	bl	8000be0 <Error_Handler>
 8000820:	2360      	movs	r3, #96	@ 0x60
 8000822:	627b      	str	r3, [r7, #36]	@ 0x24
 8000824:	2300      	movs	r3, #0
 8000826:	62bb      	str	r3, [r7, #40]	@ 0x28
 8000828:	2300      	movs	r3, #0
 800082a:	62fb      	str	r3, [r7, #44]	@ 0x2c
 800082c:	2300      	movs	r3, #0
 800082e:	637b      	str	r3, [r7, #52]	@ 0x34
 8000830:	2300      	movs	r3, #0
 8000832:	63bb      	str	r3, [r7, #56]	@ 0x38
 8000834:	2300      	movs	r3, #0
 8000836:	63fb      	str	r3, [r7, #60]	@ 0x3c
 8000838:	f107 0324 	add.w	r3, r7, #36	@ 0x24
 800083c:	220c      	movs	r2, #12
 800083e:	4619      	mov	r1, r3
 8000840:	4813      	ldr	r0, [pc, #76]	@ (8000890 <MX_TIM1_Init+0x134>)
 8000842:	f001 fbe3 	bl	800200c <HAL_TIM_PWM_ConfigChannel>
 8000846:	4603      	mov	r3, r0
 8000848:	2b00      	cmp	r3, #0
 800084a:	d001      	beq.n	8000850 <MX_TIM1_Init+0xf4>
 800084c:	f000 f9c8 	bl	8000be0 <Error_Handler>
 8000850:	2300      	movs	r3, #0
 8000852:	607b      	str	r3, [r7, #4]
 8000854:	2300      	movs	r3, #0
 8000856:	60bb      	str	r3, [r7, #8]
 8000858:	2300      	movs	r3, #0
 800085a:	60fb      	str	r3, [r7, #12]
 800085c:	2300      	movs	r3, #0
 800085e:	613b      	str	r3, [r7, #16]
 8000860:	2300      	movs	r3, #0
 8000862:	617b      	str	r3, [r7, #20]
 8000864:	f44f 5300 	mov.w	r3, #8192	@ 0x2000
 8000868:	61bb      	str	r3, [r7, #24]
 800086a:	2300      	movs	r3, #0
 800086c:	623b      	str	r3, [r7, #32]
 800086e:	1d3b      	adds	r3, r7, #4
 8000870:	4619      	mov	r1, r3
 8000872:	4807      	ldr	r0, [pc, #28]	@ (8000890 <MX_TIM1_Init+0x134>)
 8000874:	f002 f84e 	bl	8002914 <HAL_TIMEx_ConfigBreakDeadTime>
 8000878:	4603      	mov	r3, r0
 800087a:	2b00      	cmp	r3, #0
 800087c:	d001      	beq.n	8000882 <MX_TIM1_Init+0x126>
 800087e:	f000 f9af 	bl	8000be0 <Error_Handler>
 8000882:	4803      	ldr	r0, [pc, #12]	@ (8000890 <MX_TIM1_Init+0x134>)
 8000884:	f000 fa28 	bl	8000cd8 <HAL_TIM_MspPostInit>
 8000888:	bf00      	nop
 800088a:	3758      	adds	r7, #88	@ 0x58
 800088c:	46bd      	mov	sp, r7
 800088e:	bd80      	pop	{r7, pc}
 8000890:	2000002c 	.word	0x2000002c
 8000894:	40012c00 	.word	0x40012c00

08000898 <MX_TIM2_Init>:
 8000898:	b580      	push	{r7, lr}
 800089a:	b08e      	sub	sp, #56	@ 0x38
 800089c:	af00      	add	r7, sp, #0
 800089e:	f107 0328 	add.w	r3, r7, #40	@ 0x28
 80008a2:	2200      	movs	r2, #0
 80008a4:	601a      	str	r2, [r3, #0]
 80008a6:	605a      	str	r2, [r3, #4]
 80008a8:	609a      	str	r2, [r3, #8]
 80008aa:	60da      	str	r2, [r3, #12]
 80008ac:	f107 0320 	add.w	r3, r7, #32
 80008b0:	2200      	movs	r2, #0
 80008b2:	601a      	str	r2, [r3, #0]
 80008b4:	605a      	str	r2, [r3, #4]
 80008b6:	1d3b      	adds	r3, r7, #4
 80008b8:	2200      	movs	r2, #0
 80008ba:	601a      	str	r2, [r3, #0]
 80008bc:	605a      	str	r2, [r3, #4]
 80008be:	609a      	str	r2, [r3, #8]
 80008c0:	60da      	str	r2, [r3, #12]
 80008c2:	611a      	str	r2, [r3, #16]
 80008c4:	615a      	str	r2, [r3, #20]
 80008c6:	619a      	str	r2, [r3, #24]
 80008c8:	4b3d      	ldr	r3, [pc, #244]	@ (80009c0 <MX_TIM2_Init+0x128>)
 80008ca:	f04f 4280 	mov.w	r2, #1073741824	@ 0x40000000
 80008ce:	601a      	str	r2, [r3, #0]
 80008d0:	4b3b      	ldr	r3, [pc, #236]	@ (80009c0 <MX_TIM2_Init+0x128>)
 80008d2:	2208      	movs	r2, #8
 80008d4:	605a      	str	r2, [r3, #4]
 80008d6:	4b3a      	ldr	r3, [pc, #232]	@ (80009c0 <MX_TIM2_Init+0x128>)
 80008d8:	2200      	movs	r2, #0
 80008da:	609a      	str	r2, [r3, #8]
 80008dc:	4b38      	ldr	r3, [pc, #224]	@ (80009c0 <MX_TIM2_Init+0x128>)
 80008de:	f641 723f 	movw	r2, #7999	@ 0x1f3f
 80008e2:	60da      	str	r2, [r3, #12]
 80008e4:	4b36      	ldr	r3, [pc, #216]	@ (80009c0 <MX_TIM2_Init+0x128>)
 80008e6:	2200      	movs	r2, #0
 80008e8:	611a      	str	r2, [r3, #16]
 80008ea:	4b35      	ldr	r3, [pc, #212]	@ (80009c0 <MX_TIM2_Init+0x128>)
 80008ec:	2200      	movs	r2, #0
 80008ee:	619a      	str	r2, [r3, #24]
 80008f0:	4833      	ldr	r0, [pc, #204]	@ (80009c0 <MX_TIM2_Init+0x128>)
 80008f2:	f001 fa41 	bl	8001d78 <HAL_TIM_Base_Init>
 80008f6:	4603      	mov	r3, r0
 80008f8:	2b00      	cmp	r3, #0
 80008fa:	d001      	beq.n	8000900 <MX_TIM2_Init+0x68>
 80008fc:	f000 f970 	bl	8000be0 <Error_Handler>
 8000900:	f44f 5380 	mov.w	r3, #4096	@ 0x1000
 8000904:	62bb      	str	r3, [r7, #40]	@ 0x28
 8000906:	f107 0328 	add.w	r3, r7, #40	@ 0x28
 800090a:	4619      	mov	r1, r3
 800090c:	482c      	ldr	r0, [pc, #176]	@ (80009c0 <MX_TIM2_Init+0x128>)
 800090e:	f001 fc3b 	bl	8002188 <HAL_TIM_ConfigClockSource>
 8000912:	4603      	mov	r3, r0
 8000914:	2b00      	cmp	r3, #0
 8000916:	d001      	beq.n	800091c <MX_TIM2_Init+0x84>
 8000918:	f000 f962 	bl	8000be0 <Error_Handler>
 800091c:	4828      	ldr	r0, [pc, #160]	@ (80009c0 <MX_TIM2_Init+0x128>)
 800091e:	f001 fa7a 	bl	8001e16 <HAL_TIM_PWM_Init>
 8000922:	4603      	mov	r3, r0
 8000924:	2b00      	cmp	r3, #0
 8000926:	d001      	beq.n	800092c <MX_TIM2_Init+0x94>
 8000928:	f000 f95a 	bl	8000be0 <Error_Handler>
 800092c:	2300      	movs	r3, #0
 800092e:	623b      	str	r3, [r7, #32]
 8000930:	2300      	movs	r3, #0
 8000932:	627b      	str	r3, [r7, #36]	@ 0x24
 8000934:	f107 0320 	add.w	r3, r7, #32
 8000938:	4619      	mov	r1, r3
 800093a:	4821      	ldr	r0, [pc, #132]	@ (80009c0 <MX_TIM2_Init+0x128>)
 800093c:	f001 ff8c 	bl	8002858 <HAL_TIMEx_MasterConfigSynchronization>
 8000940:	4603      	mov	r3, r0
 8000942:	2b00      	cmp	r3, #0
 8000944:	d001      	beq.n	800094a <MX_TIM2_Init+0xb2>
 8000946:	f000 f94b 	bl	8000be0 <Error_Handler>
 800094a:	2360      	movs	r3, #96	@ 0x60
 800094c:	607b      	str	r3, [r7, #4]
 800094e:	2300      	movs	r3, #0
 8000950:	60bb      	str	r3, [r7, #8]
 8000952:	2300      	movs	r3, #0
 8000954:	60fb      	str	r3, [r7, #12]
 8000956:	2300      	movs	r3, #0
 8000958:	617b      	str	r3, [r7, #20]
 800095a:	1d3b      	adds	r3, r7, #4
 800095c:	2200      	movs	r2, #0
 800095e:	4619      	mov	r1, r3
 8000960:	4817      	ldr	r0, [pc, #92]	@ (80009c0 <MX_TIM2_Init+0x128>)
 8000962:	f001 fb53 	bl	800200c <HAL_TIM_PWM_ConfigChannel>
 8000966:	4603      	mov	r3, r0
 8000968:	2b00      	cmp	r3, #0
 800096a:	d001      	beq.n	8000970 <MX_TIM2_Init+0xd8>
 800096c:	f000 f938 	bl	8000be0 <Error_Handler>
 8000970:	1d3b      	adds	r3, r7, #4
 8000972:	2204      	movs	r2, #4
 8000974:	4619      	mov	r1, r3
 8000976:	4812      	ldr	r0, [pc, #72]	@ (80009c0 <MX_TIM2_Init+0x128>)
 8000978:	f001 fb48 	bl	800200c <HAL_TIM_PWM_ConfigChannel>
 800097c:	4603      	mov	r3, r0
 800097e:	2b00      	cmp	r3, #0
 8000980:	d001      	beq.n	8000986 <MX_TIM2_Init+0xee>
 8000982:	f000 f92d 	bl	8000be0 <Error_Handler>
 8000986:	1d3b      	adds	r3, r7, #4
 8000988:	2208      	movs	r2, #8
 800098a:	4619      	mov	r1, r3
 800098c:	480c      	ldr	r0, [pc, #48]	@ (80009c0 <MX_TIM2_Init+0x128>)
 800098e:	f001 fb3d 	bl	800200c <HAL_TIM_PWM_ConfigChannel>
 8000992:	4603      	mov	r3, r0
 8000994:	2b00      	cmp	r3, #0
 8000996:	d001      	beq.n	800099c <MX_TIM2_Init+0x104>
 8000998:	f000 f922 	bl	8000be0 <Error_Handler>
 800099c:	1d3b      	adds	r3, r7, #4
 800099e:	220c      	movs	r2, #12
 80009a0:	4619      	mov	r1, r3
 80009a2:	4807      	ldr	r0, [pc, #28]	@ (80009c0 <MX_TIM2_Init+0x128>)
 80009a4:	f001 fb32 	bl	800200c <HAL_TIM_PWM_ConfigChannel>
 80009a8:	4603      	mov	r3, r0
 80009aa:	2b00      	cmp	r3, #0
 80009ac:	d001      	beq.n	80009b2 <MX_TIM2_Init+0x11a>
 80009ae:	f000 f917 	bl	8000be0 <Error_Handler>
 80009b2:	4803      	ldr	r0, [pc, #12]	@ (80009c0 <MX_TIM2_Init+0x128>)
 80009b4:	f000 f990 	bl	8000cd8 <HAL_TIM_MspPostInit>
 80009b8:	bf00      	nop
 80009ba:	3738      	adds	r7, #56	@ 0x38
 80009bc:	46bd      	mov	sp, r7
 80009be:	bd80      	pop	{r7, pc}
 80009c0:	20000074 	.word	0x20000074

080009c4 <MX_TIM3_Init>:
 80009c4:	b580      	push	{r7, lr}
 80009c6:	b08e      	sub	sp, #56	@ 0x38
 80009c8:	af00      	add	r7, sp, #0
 80009ca:	f107 0328 	add.w	r3, r7, #40	@ 0x28
 80009ce:	2200      	movs	r2, #0
 80009d0:	601a      	str	r2, [r3, #0]
 80009d2:	605a      	str	r2, [r3, #4]
 80009d4:	609a      	str	r2, [r3, #8]
 80009d6:	60da      	str	r2, [r3, #12]
 80009d8:	f107 0320 	add.w	r3, r7, #32
 80009dc:	2200      	movs	r2, #0
 80009de:	601a      	str	r2, [r3, #0]
 80009e0:	605a      	str	r2, [r3, #4]
 80009e2:	1d3b      	adds	r3, r7, #4
 80009e4:	2200      	movs	r2, #0
 80009e6:	601a      	str	r2, [r3, #0]
 80009e8:	605a      	str	r2, [r3, #4]
 80009ea:	609a      	str	r2, [r3, #8]
 80009ec:	60da      	str	r2, [r3, #12]
 80009ee:	611a      	str	r2, [r3, #16]
 80009f0:	615a      	str	r2, [r3, #20]
 80009f2:	619a      	str	r2, [r3, #24]
 80009f4:	4b37      	ldr	r3, [pc, #220]	@ (8000ad4 <MX_TIM3_Init+0x110>)
 80009f6:	4a38      	ldr	r2, [pc, #224]	@ (8000ad8 <MX_TIM3_Init+0x114>)
 80009f8:	601a      	str	r2, [r3, #0]
 80009fa:	4b36      	ldr	r3, [pc, #216]	@ (8000ad4 <MX_TIM3_Init+0x110>)
 80009fc:	2208      	movs	r2, #8
 80009fe:	605a      	str	r2, [r3, #4]
 8000a00:	4b34      	ldr	r3, [pc, #208]	@ (8000ad4 <MX_TIM3_Init+0x110>)
 8000a02:	2200      	movs	r2, #0
 8000a04:	609a      	str	r2, [r3, #8]
 8000a06:	4b33      	ldr	r3, [pc, #204]	@ (8000ad4 <MX_TIM3_Init+0x110>)
 8000a08:	f641 723f 	movw	r2, #7999	@ 0x1f3f
 8000a0c:	60da      	str	r2, [r3, #12]
 8000a0e:	4b31      	ldr	r3, [pc, #196]	@ (8000ad4 <MX_TIM3_Init+0x110>)
 8000a10:	2200      	movs	r2, #0
 8000a12:	611a      	str	r2, [r3, #16]
 8000a14:	4b2f      	ldr	r3, [pc, #188]	@ (8000ad4 <MX_TIM3_Init+0x110>)
 8000a16:	2200      	movs	r2, #0
 8000a18:	619a      	str	r2, [r3, #24]
 8000a1a:	482e      	ldr	r0, [pc, #184]	@ (8000ad4 <MX_TIM3_Init+0x110>)
 8000a1c:	f001 f9ac 	bl	8001d78 <HAL_TIM_Base_Init>
 8000a20:	4603      	mov	r3, r0
 8000a22:	2b00      	cmp	r3, #0
 8000a24:	d001      	beq.n	8000a2a <MX_TIM3_Init+0x66>
 8000a26:	f000 f8db 	bl	8000be0 <Error_Handler>
 8000a2a:	f44f 5380 	mov.w	r3, #4096	@ 0x1000
 8000a2e:	62bb      	str	r3, [r7, #40]	@ 0x28
 8000a30:	f107 0328 	add.w	r3, r7, #40	@ 0x28
 8000a34:	4619      	mov	r1, r3
 8000a36:	4827      	ldr	r0, [pc, #156]	@ (8000ad4 <MX_TIM3_Init+0x110>)
 8000a38:	f001 fba6 	bl	8002188 <HAL_TIM_ConfigClockSource>
 8000a3c:	4603      	mov	r3, r0
 8000a3e:	2b00      	cmp	r3, #0
 8000a40:	d001      	beq.n	8000a46 <MX_TIM3_Init+0x82>
 8000a42:	f000 f8cd 	bl	8000be0 <Error_Handler>
 8000a46:	4823      	ldr	r0, [pc, #140]	@ (8000ad4 <MX_TIM3_Init+0x110>)
 8000a48:	f001 f9e5 	bl	8001e16 <HAL_TIM_PWM_Init>
 8000a4c:	4603      	mov	r3, r0
 8000a4e:	2b00      	cmp	r3, #0
 8000a50:	d001      	beq.n	8000a56 <MX_TIM3_Init+0x92>
 8000a52:	f000 f8c5 	bl	8000be0 <Error_Handler>
 8000a56:	2300      	movs	r3, #0
 8000a58:	623b      	str	r3, [r7, #32]
 8000a5a:	2300      	movs	r3, #0
 8000a5c:	627b      	str	r3, [r7, #36]	@ 0x24
 8000a5e:	f107 0320 	add.w	r3, r7, #32
 8000a62:	4619      	mov	r1, r3
 8000a64:	481b      	ldr	r0, [pc, #108]	@ (8000ad4 <MX_TIM3_Init+0x110>)
 8000a66:	f001 fef7 	bl	8002858 <HAL_TIMEx_MasterConfigSynchronization>
 8000a6a:	4603      	mov	r3, r0
 8000a6c:	2b00      	cmp	r3, #0
 8000a6e:	d001      	beq.n	8000a74 <MX_TIM3_Init+0xb0>
 8000a70:	f000 f8b6 	bl	8000be0 <Error_Handler>
 8000a74:	2360      	movs	r3, #96	@ 0x60
 8000a76:	607b      	str	r3, [r7, #4]
 8000a78:	2300      	movs	r3, #0
 8000a7a:	60bb      	str	r3, [r7, #8]
 8000a7c:	2300      	movs	r3, #0
 8000a7e:	60fb      	str	r3, [r7, #12]
 8000a80:	2300      	movs	r3, #0
 8000a82:	617b      	str	r3, [r7, #20]
 8000a84:	1d3b      	adds	r3, r7, #4
 8000a86:	2200      	movs	r2, #0
 8000a88:	4619      	mov	r1, r3
 8000a8a:	4812      	ldr	r0, [pc, #72]	@ (8000ad4 <MX_TIM3_Init+0x110>)
 8000a8c:	f001 fabe 	bl	800200c <HAL_TIM_PWM_ConfigChannel>
 8000a90:	4603      	mov	r3, r0
 8000a92:	2b00      	cmp	r3, #0
 8000a94:	d001      	beq.n	8000a9a <MX_TIM3_Init+0xd6>
 8000a96:	f000 f8a3 	bl	8000be0 <Error_Handler>
 8000a9a:	1d3b      	adds	r3, r7, #4
 8000a9c:	2204      	movs	r2, #4
 8000a9e:	4619      	mov	r1, r3
 8000aa0:	480c      	ldr	r0, [pc, #48]	@ (8000ad4 <MX_TIM3_Init+0x110>)
 8000aa2:	f001 fab3 	bl	800200c <HAL_TIM_PWM_ConfigChannel>
 8000aa6:	4603      	mov	r3, r0
 8000aa8:	2b00      	cmp	r3, #0
 8000aaa:	d001      	beq.n	8000ab0 <MX_TIM3_Init+0xec>
 8000aac:	f000 f898 	bl	8000be0 <Error_Handler>
 8000ab0:	1d3b      	adds	r3, r7, #4
 8000ab2:	2208      	movs	r2, #8
 8000ab4:	4619      	mov	r1, r3
 8000ab6:	4807      	ldr	r0, [pc, #28]	@ (8000ad4 <MX_TIM3_Init+0x110>)
 8000ab8:	f001 faa8 	bl	800200c <HAL_TIM_PWM_ConfigChannel>
 8000abc:	4603      	mov	r3, r0
 8000abe:	2b00      	cmp	r3, #0
 8000ac0:	d001      	beq.n	8000ac6 <MX_TIM3_Init+0x102>
 8000ac2:	f000 f88d 	bl	8000be0 <Error_Handler>
 8000ac6:	4803      	ldr	r0, [pc, #12]	@ (8000ad4 <MX_TIM3_Init+0x110>)
 8000ac8:	f000 f906 	bl	8000cd8 <HAL_TIM_MspPostInit>
 8000acc:	bf00      	nop
 8000ace:	3738      	adds	r7, #56	@ 0x38
 8000ad0:	46bd      	mov	sp, r7
 8000ad2:	bd80      	pop	{r7, pc}
 8000ad4:	200000bc 	.word	0x200000bc
 8000ad8:	40000400 	.word	0x40000400

08000adc <MX_USART3_UART_Init>:
 8000adc:	b580      	push	{r7, lr}
 8000ade:	af00      	add	r7, sp, #0
 8000ae0:	4b11      	ldr	r3, [pc, #68]	@ (8000b28 <MX_USART3_UART_Init+0x4c>)
 8000ae2:	4a12      	ldr	r2, [pc, #72]	@ (8000b2c <MX_USART3_UART_Init+0x50>)
 8000ae4:	601a      	str	r2, [r3, #0]
 8000ae6:	4b10      	ldr	r3, [pc, #64]	@ (8000b28 <MX_USART3_UART_Init+0x4c>)
 8000ae8:	f44f 5216 	mov.w	r2, #9600	@ 0x2580
 8000aec:	605a      	str	r2, [r3, #4]
 8000aee:	4b0e      	ldr	r3, [pc, #56]	@ (8000b28 <MX_USART3_UART_Init+0x4c>)
 8000af0:	2200      	movs	r2, #0
 8000af2:	609a      	str	r2, [r3, #8]
 8000af4:	4b0c      	ldr	r3, [pc, #48]	@ (8000b28 <MX_USART3_UART_Init+0x4c>)
 8000af6:	2200      	movs	r2, #0
 8000af8:	60da      	str	r2, [r3, #12]
 8000afa:	4b0b      	ldr	r3, [pc, #44]	@ (8000b28 <MX_USART3_UART_Init+0x4c>)
 8000afc:	2200      	movs	r2, #0
 8000afe:	611a      	str	r2, [r3, #16]
 8000b00:	4b09      	ldr	r3, [pc, #36]	@ (8000b28 <MX_USART3_UART_Init+0x4c>)
 8000b02:	220c      	movs	r2, #12
 8000b04:	615a      	str	r2, [r3, #20]
 8000b06:	4b08      	ldr	r3, [pc, #32]	@ (8000b28 <MX_USART3_UART_Init+0x4c>)
 8000b08:	2200      	movs	r2, #0
 8000b0a:	619a      	str	r2, [r3, #24]
 8000b0c:	4b06      	ldr	r3, [pc, #24]	@ (8000b28 <MX_USART3_UART_Init+0x4c>)
 8000b0e:	2200      	movs	r2, #0
 8000b10:	61da      	str	r2, [r3, #28]
 8000b12:	4805      	ldr	r0, [pc, #20]	@ (8000b28 <MX_USART3_UART_Init+0x4c>)
 8000b14:	f001 ff4f 	bl	80029b6 <HAL_UART_Init>
 8000b18:	4603      	mov	r3, r0
 8000b1a:	2b00      	cmp	r3, #0
 8000b1c:	d001      	beq.n	8000b22 <MX_USART3_UART_Init+0x46>
 8000b1e:	f000 f85f 	bl	8000be0 <Error_Handler>
 8000b22:	bf00      	nop
 8000b24:	bd80      	pop	{r7, pc}
 8000b26:	bf00      	nop
 8000b28:	20000104 	.word	0x20000104
 8000b2c:	40004800 	.word	0x40004800

08000b30 <MX_GPIO_Init>:
 8000b30:	b580      	push	{r7, lr}
 8000b32:	b088      	sub	sp, #32
 8000b34:	af00      	add	r7, sp, #0
 8000b36:	f107 0310 	add.w	r3, r7, #16
 8000b3a:	2200      	movs	r2, #0
 8000b3c:	601a      	str	r2, [r3, #0]
 8000b3e:	605a      	str	r2, [r3, #4]
 8000b40:	609a      	str	r2, [r3, #8]
 8000b42:	60da      	str	r2, [r3, #12]
 8000b44:	4b24      	ldr	r3, [pc, #144]	@ (8000bd8 <MX_GPIO_Init+0xa8>)
 8000b46:	699b      	ldr	r3, [r3, #24]
 8000b48:	4a23      	ldr	r2, [pc, #140]	@ (8000bd8 <MX_GPIO_Init+0xa8>)
 8000b4a:	f043 0310 	orr.w	r3, r3, #16
 8000b4e:	6193      	str	r3, [r2, #24]
 8000b50:	4b21      	ldr	r3, [pc, #132]	@ (8000bd8 <MX_GPIO_Init+0xa8>)
 8000b52:	699b      	ldr	r3, [r3, #24]
 8000b54:	f003 0310 	and.w	r3, r3, #16
 8000b58:	60fb      	str	r3, [r7, #12]
 8000b5a:	68fb      	ldr	r3, [r7, #12]
 8000b5c:	4b1e      	ldr	r3, [pc, #120]	@ (8000bd8 <MX_GPIO_Init+0xa8>)
 8000b5e:	699b      	ldr	r3, [r3, #24]
 8000b60:	4a1d      	ldr	r2, [pc, #116]	@ (8000bd8 <MX_GPIO_Init+0xa8>)
 8000b62:	f043 0320 	orr.w	r3, r3, #32
 8000b66:	6193      	str	r3, [r2, #24]
 8000b68:	4b1b      	ldr	r3, [pc, #108]	@ (8000bd8 <MX_GPIO_Init+0xa8>)
 8000b6a:	699b      	ldr	r3, [r3, #24]
 8000b6c:	f003 0320 	and.w	r3, r3, #32
 8000b70:	60bb      	str	r3, [r7, #8]
 8000b72:	68bb      	ldr	r3, [r7, #8]
 8000b74:	4b18      	ldr	r3, [pc, #96]	@ (8000bd8 <MX_GPIO_Init+0xa8>)
 8000b76:	699b      	ldr	r3, [r3, #24]
 8000b78:	4a17      	ldr	r2, [pc, #92]	@ (8000bd8 <MX_GPIO_Init+0xa8>)
 8000b7a:	f043 0304 	orr.w	r3, r3, #4
 8000b7e:	6193      	str	r3, [r2, #24]
 8000b80:	4b15      	ldr	r3, [pc, #84]	@ (8000bd8 <MX_GPIO_Init+0xa8>)
 8000b82:	699b      	ldr	r3, [r3, #24]
 8000b84:	f003 0304 	and.w	r3, r3, #4
 8000b88:	607b      	str	r3, [r7, #4]
 8000b8a:	687b      	ldr	r3, [r7, #4]
 8000b8c:	4b12      	ldr	r3, [pc, #72]	@ (8000bd8 <MX_GPIO_Init+0xa8>)
 8000b8e:	699b      	ldr	r3, [r3, #24]
 8000b90:	4a11      	ldr	r2, [pc, #68]	@ (8000bd8 <MX_GPIO_Init+0xa8>)
 8000b92:	f043 0308 	orr.w	r3, r3, #8
 8000b96:	6193      	str	r3, [r2, #24]
 8000b98:	4b0f      	ldr	r3, [pc, #60]	@ (8000bd8 <MX_GPIO_Init+0xa8>)
 8000b9a:	699b      	ldr	r3, [r3, #24]
 8000b9c:	f003 0308 	and.w	r3, r3, #8
 8000ba0:	603b      	str	r3, [r7, #0]
 8000ba2:	683b      	ldr	r3, [r7, #0]
 8000ba4:	2200      	movs	r2, #0
 8000ba6:	f44f 5100 	mov.w	r1, #8192	@ 0x2000
 8000baa:	480c      	ldr	r0, [pc, #48]	@ (8000bdc <MX_GPIO_Init+0xac>)
 8000bac:	f000 fcb2 	bl	8001514 <HAL_GPIO_WritePin>
 8000bb0:	f44f 5300 	mov.w	r3, #8192	@ 0x2000
 8000bb4:	613b      	str	r3, [r7, #16]
 8000bb6:	2301      	movs	r3, #1
 8000bb8:	617b      	str	r3, [r7, #20]
 8000bba:	2300      	movs	r3, #0
 8000bbc:	61bb      	str	r3, [r7, #24]
 8000bbe:	2302      	movs	r3, #2
 8000bc0:	61fb      	str	r3, [r7, #28]
 8000bc2:	f107 0310 	add.w	r3, r7, #16
 8000bc6:	4619      	mov	r1, r3
 8000bc8:	4804      	ldr	r0, [pc, #16]	@ (8000bdc <MX_GPIO_Init+0xac>)
 8000bca:	f000 fb1f 	bl	800120c <HAL_GPIO_Init>
 8000bce:	bf00      	nop
 8000bd0:	3720      	adds	r7, #32
 8000bd2:	46bd      	mov	sp, r7
 8000bd4:	bd80      	pop	{r7, pc}
 8000bd6:	bf00      	nop
 8000bd8:	40021000 	.word	0x40021000
 8000bdc:	40011000 	.word	0x40011000

08000be0 <Error_Handler>:
 8000be0:	b480      	push	{r7}
 8000be2:	af00      	add	r7, sp, #0
 8000be4:	b672      	cpsid	i
 8000be6:	bf00      	nop
 8000be8:	bf00      	nop
 8000bea:	e7fd      	b.n	8000be8 <Error_Handler+0x8>

08000bec <HAL_MspInit>:
 8000bec:	b480      	push	{r7}
 8000bee:	b085      	sub	sp, #20
 8000bf0:	af00      	add	r7, sp, #0
 8000bf2:	4b15      	ldr	r3, [pc, #84]	@ (8000c48 <HAL_MspInit+0x5c>)
 8000bf4:	699b      	ldr	r3, [r3, #24]
 8000bf6:	4a14      	ldr	r2, [pc, #80]	@ (8000c48 <HAL_MspInit+0x5c>)
 8000bf8:	f043 0301 	orr.w	r3, r3, #1
 8000bfc:	6193      	str	r3, [r2, #24]
 8000bfe:	4b12      	ldr	r3, [pc, #72]	@ (8000c48 <HAL_MspInit+0x5c>)
 8000c00:	699b      	ldr	r3, [r3, #24]
 8000c02:	f003 0301 	and.w	r3, r3, #1
 8000c06:	60bb      	str	r3, [r7, #8]
 8000c08:	68bb      	ldr	r3, [r7, #8]
 8000c0a:	4b0f      	ldr	r3, [pc, #60]	@ (8000c48 <HAL_MspInit+0x5c>)
 8000c0c:	69db      	ldr	r3, [r3, #28]
 8000c0e:	4a0e      	ldr	r2, [pc, #56]	@ (8000c48 <HAL_MspInit+0x5c>)
 8000c10:	f043 5380 	orr.w	r3, r3, #268435456	@ 0x10000000
 8000c14:	61d3      	str	r3, [r2, #28]
 8000c16:	4b0c      	ldr	r3, [pc, #48]	@ (8000c48 <HAL_MspInit+0x5c>)
 8000c18:	69db      	ldr	r3, [r3, #28]
 8000c1a:	f003 5380 	and.w	r3, r3, #268435456	@ 0x10000000
 8000c1e:	607b      	str	r3, [r7, #4]
 8000c20:	687b      	ldr	r3, [r7, #4]
 8000c22:	4b0a      	ldr	r3, [pc, #40]	@ (8000c4c <HAL_MspInit+0x60>)
 8000c24:	685b      	ldr	r3, [r3, #4]
 8000c26:	60fb      	str	r3, [r7, #12]
 8000c28:	68fb      	ldr	r3, [r7, #12]
 8000c2a:	f023 63e0 	bic.w	r3, r3, #117440512	@ 0x7000000
 8000c2e:	60fb      	str	r3, [r7, #12]
 8000c30:	68fb      	ldr	r3, [r7, #12]
 8000c32:	f043 7300 	orr.w	r3, r3, #33554432	@ 0x2000000
 8000c36:	60fb      	str	r3, [r7, #12]
 8000c38:	4a04      	ldr	r2, [pc, #16]	@ (8000c4c <HAL_MspInit+0x60>)
 8000c3a:	68fb      	ldr	r3, [r7, #12]
 8000c3c:	6053      	str	r3, [r2, #4]
 8000c3e:	bf00      	nop
 8000c40:	3714      	adds	r7, #20
 8000c42:	46bd      	mov	sp, r7
 8000c44:	bc80      	pop	{r7}
 8000c46:	4770      	bx	lr
 8000c48:	40021000 	.word	0x40021000
 8000c4c:	40010000 	.word	0x40010000

08000c50 <HAL_TIM_Base_MspInit>:
 8000c50:	b480      	push	{r7}
 8000c52:	b087      	sub	sp, #28
 8000c54:	af00      	add	r7, sp, #0
 8000c56:	6078      	str	r0, [r7, #4]
 8000c58:	687b      	ldr	r3, [r7, #4]
 8000c5a:	681b      	ldr	r3, [r3, #0]
 8000c5c:	4a1b      	ldr	r2, [pc, #108]	@ (8000ccc <HAL_TIM_Base_MspInit+0x7c>)
 8000c5e:	4293      	cmp	r3, r2
 8000c60:	d10c      	bne.n	8000c7c <HAL_TIM_Base_MspInit+0x2c>
 8000c62:	4b1b      	ldr	r3, [pc, #108]	@ (8000cd0 <HAL_TIM_Base_MspInit+0x80>)
 8000c64:	699b      	ldr	r3, [r3, #24]
 8000c66:	4a1a      	ldr	r2, [pc, #104]	@ (8000cd0 <HAL_TIM_Base_MspInit+0x80>)
 8000c68:	f443 6300 	orr.w	r3, r3, #2048	@ 0x800
 8000c6c:	6193      	str	r3, [r2, #24]
 8000c6e:	4b18      	ldr	r3, [pc, #96]	@ (8000cd0 <HAL_TIM_Base_MspInit+0x80>)
 8000c70:	699b      	ldr	r3, [r3, #24]
 8000c72:	f403 6300 	and.w	r3, r3, #2048	@ 0x800
 8000c76:	617b      	str	r3, [r7, #20]
 8000c78:	697b      	ldr	r3, [r7, #20]
 8000c7a:	e022      	b.n	8000cc2 <HAL_TIM_Base_MspInit+0x72>
 8000c7c:	687b      	ldr	r3, [r7, #4]
 8000c7e:	681b      	ldr	r3, [r3, #0]
 8000c80:	f1b3 4f80 	cmp.w	r3, #1073741824	@ 0x40000000
 8000c84:	d10c      	bne.n	8000ca0 <HAL_TIM_Base_MspInit+0x50>
 8000c86:	4b12      	ldr	r3, [pc, #72]	@ (8000cd0 <HAL_TIM_Base_MspInit+0x80>)
 8000c88:	69db      	ldr	r3, [r3, #28]
 8000c8a:	4a11      	ldr	r2, [pc, #68]	@ (8000cd0 <HAL_TIM_Base_MspInit+0x80>)
 8000c8c:	f043 0301 	orr.w	r3, r3, #1
 8000c90:	61d3      	str	r3, [r2, #28]
 8000c92:	4b0f      	ldr	r3, [pc, #60]	@ (8000cd0 <HAL_TIM_Base_MspInit+0x80>)
 8000c94:	69db      	ldr	r3, [r3, #28]
 8000c96:	f003 0301 	and.w	r3, r3, #1
 8000c9a:	613b      	str	r3, [r7, #16]
 8000c9c:	693b      	ldr	r3, [r7, #16]
 8000c9e:	e010      	b.n	8000cc2 <HAL_TIM_Base_MspInit+0x72>
 8000ca0:	687b      	ldr	r3, [r7, #4]
 8000ca2:	681b      	ldr	r3, [r3, #0]
 8000ca4:	4a0b      	ldr	r2, [pc, #44]	@ (8000cd4 <HAL_TIM_Base_MspInit+0x84>)
 8000ca6:	4293      	cmp	r3, r2
 8000ca8:	d10b      	bne.n	8000cc2 <HAL_TIM_Base_MspInit+0x72>
 8000caa:	4b09      	ldr	r3, [pc, #36]	@ (8000cd0 <HAL_TIM_Base_MspInit+0x80>)
 8000cac:	69db      	ldr	r3, [r3, #28]
 8000cae:	4a08      	ldr	r2, [pc, #32]	@ (8000cd0 <HAL_TIM_Base_MspInit+0x80>)
 8000cb0:	f043 0302 	orr.w	r3, r3, #2
 8000cb4:	61d3      	str	r3, [r2, #28]
 8000cb6:	4b06      	ldr	r3, [pc, #24]	@ (8000cd0 <HAL_TIM_Base_MspInit+0x80>)
 8000cb8:	69db      	ldr	r3, [r3, #28]
 8000cba:	f003 0302 	and.w	r3, r3, #2
 8000cbe:	60fb      	str	r3, [r7, #12]
 8000cc0:	68fb      	ldr	r3, [r7, #12]
 8000cc2:	bf00      	nop
 8000cc4:	371c      	adds	r7, #28
 8000cc6:	46bd      	mov	sp, r7
 8000cc8:	bc80      	pop	{r7}
 8000cca:	4770      	bx	lr
 8000ccc:	40012c00 	.word	0x40012c00
 8000cd0:	40021000 	.word	0x40021000
 8000cd4:	40000400 	.word	0x40000400

08000cd8 <HAL_TIM_MspPostInit>:
 8000cd8:	b580      	push	{r7, lr}
 8000cda:	b08a      	sub	sp, #40	@ 0x28
 8000cdc:	af00      	add	r7, sp, #0
 8000cde:	6078      	str	r0, [r7, #4]
 8000ce0:	f107 0318 	add.w	r3, r7, #24
 8000ce4:	2200      	movs	r2, #0
 8000ce6:	601a      	str	r2, [r3, #0]
 8000ce8:	605a      	str	r2, [r3, #4]
 8000cea:	609a      	str	r2, [r3, #8]
 8000cec:	60da      	str	r2, [r3, #12]
 8000cee:	687b      	ldr	r3, [r7, #4]
 8000cf0:	681b      	ldr	r3, [r3, #0]
 8000cf2:	4a3a      	ldr	r2, [pc, #232]	@ (8000ddc <HAL_TIM_MspPostInit+0x104>)
 8000cf4:	4293      	cmp	r3, r2
 8000cf6:	d119      	bne.n	8000d2c <HAL_TIM_MspPostInit+0x54>
 8000cf8:	4b39      	ldr	r3, [pc, #228]	@ (8000de0 <HAL_TIM_MspPostInit+0x108>)
 8000cfa:	699b      	ldr	r3, [r3, #24]
 8000cfc:	4a38      	ldr	r2, [pc, #224]	@ (8000de0 <HAL_TIM_MspPostInit+0x108>)
 8000cfe:	f043 0304 	orr.w	r3, r3, #4
 8000d02:	6193      	str	r3, [r2, #24]
 8000d04:	4b36      	ldr	r3, [pc, #216]	@ (8000de0 <HAL_TIM_MspPostInit+0x108>)
 8000d06:	699b      	ldr	r3, [r3, #24]
 8000d08:	f003 0304 	and.w	r3, r3, #4
 8000d0c:	617b      	str	r3, [r7, #20]
 8000d0e:	697b      	ldr	r3, [r7, #20]
 8000d10:	f44f 6300 	mov.w	r3, #2048	@ 0x800
 8000d14:	61bb      	str	r3, [r7, #24]
 8000d16:	2302      	movs	r3, #2
 8000d18:	61fb      	str	r3, [r7, #28]
 8000d1a:	2302      	movs	r3, #2
 8000d1c:	627b      	str	r3, [r7, #36]	@ 0x24
 8000d1e:	f107 0318 	add.w	r3, r7, #24
 8000d22:	4619      	mov	r1, r3
 8000d24:	482f      	ldr	r0, [pc, #188]	@ (8000de4 <HAL_TIM_MspPostInit+0x10c>)
 8000d26:	f000 fa71 	bl	800120c <HAL_GPIO_Init>
 8000d2a:	e052      	b.n	8000dd2 <HAL_TIM_MspPostInit+0xfa>
 8000d2c:	687b      	ldr	r3, [r7, #4]
 8000d2e:	681b      	ldr	r3, [r3, #0]
 8000d30:	f1b3 4f80 	cmp.w	r3, #1073741824	@ 0x40000000
 8000d34:	d118      	bne.n	8000d68 <HAL_TIM_MspPostInit+0x90>
 8000d36:	4b2a      	ldr	r3, [pc, #168]	@ (8000de0 <HAL_TIM_MspPostInit+0x108>)
 8000d38:	699b      	ldr	r3, [r3, #24]
 8000d3a:	4a29      	ldr	r2, [pc, #164]	@ (8000de0 <HAL_TIM_MspPostInit+0x108>)
 8000d3c:	f043 0304 	orr.w	r3, r3, #4
 8000d40:	6193      	str	r3, [r2, #24]
 8000d42:	4b27      	ldr	r3, [pc, #156]	@ (8000de0 <HAL_TIM_MspPostInit+0x108>)
 8000d44:	699b      	ldr	r3, [r3, #24]
 8000d46:	f003 0304 	and.w	r3, r3, #4
 8000d4a:	613b      	str	r3, [r7, #16]
 8000d4c:	693b      	ldr	r3, [r7, #16]
 8000d4e:	230f      	movs	r3, #15
 8000d50:	61bb      	str	r3, [r7, #24]
 8000d52:	2302      	movs	r3, #2
 8000d54:	61fb      	str	r3, [r7, #28]
 8000d56:	2302      	movs	r3, #2
 8000d58:	627b      	str	r3, [r7, #36]	@ 0x24
 8000d5a:	f107 0318 	add.w	r3, r7, #24
 8000d5e:	4619      	mov	r1, r3
 8000d60:	4820      	ldr	r0, [pc, #128]	@ (8000de4 <HAL_TIM_MspPostInit+0x10c>)
 8000d62:	f000 fa53 	bl	800120c <HAL_GPIO_Init>
 8000d66:	e034      	b.n	8000dd2 <HAL_TIM_MspPostInit+0xfa>
 8000d68:	687b      	ldr	r3, [r7, #4]
 8000d6a:	681b      	ldr	r3, [r3, #0]
 8000d6c:	4a1e      	ldr	r2, [pc, #120]	@ (8000de8 <HAL_TIM_MspPostInit+0x110>)
 8000d6e:	4293      	cmp	r3, r2
 8000d70:	d12f      	bne.n	8000dd2 <HAL_TIM_MspPostInit+0xfa>
 8000d72:	4b1b      	ldr	r3, [pc, #108]	@ (8000de0 <HAL_TIM_MspPostInit+0x108>)
 8000d74:	699b      	ldr	r3, [r3, #24]
 8000d76:	4a1a      	ldr	r2, [pc, #104]	@ (8000de0 <HAL_TIM_MspPostInit+0x108>)
 8000d78:	f043 0304 	orr.w	r3, r3, #4
 8000d7c:	6193      	str	r3, [r2, #24]
 8000d7e:	4b18      	ldr	r3, [pc, #96]	@ (8000de0 <HAL_TIM_MspPostInit+0x108>)
 8000d80:	699b      	ldr	r3, [r3, #24]
 8000d82:	f003 0304 	and.w	r3, r3, #4
 8000d86:	60fb      	str	r3, [r7, #12]
 8000d88:	68fb      	ldr	r3, [r7, #12]
 8000d8a:	4b15      	ldr	r3, [pc, #84]	@ (8000de0 <HAL_TIM_MspPostInit+0x108>)
 8000d8c:	699b      	ldr	r3, [r3, #24]
 8000d8e:	4a14      	ldr	r2, [pc, #80]	@ (8000de0 <HAL_TIM_MspPostInit+0x108>)
 8000d90:	f043 0308 	orr.w	r3, r3, #8
 8000d94:	6193      	str	r3, [r2, #24]
 8000d96:	4b12      	ldr	r3, [pc, #72]	@ (8000de0 <HAL_TIM_MspPostInit+0x108>)
 8000d98:	699b      	ldr	r3, [r3, #24]
 8000d9a:	f003 0308 	and.w	r3, r3, #8
 8000d9e:	60bb      	str	r3, [r7, #8]
 8000da0:	68bb      	ldr	r3, [r7, #8]
 8000da2:	23c0      	movs	r3, #192	@ 0xc0
 8000da4:	61bb      	str	r3, [r7, #24]
 8000da6:	2302      	movs	r3, #2
 8000da8:	61fb      	str	r3, [r7, #28]
 8000daa:	2302      	movs	r3, #2
 8000dac:	627b      	str	r3, [r7, #36]	@ 0x24
 8000dae:	f107 0318 	add.w	r3, r7, #24
 8000db2:	4619      	mov	r1, r3
 8000db4:	480b      	ldr	r0, [pc, #44]	@ (8000de4 <HAL_TIM_MspPostInit+0x10c>)
 8000db6:	f000 fa29 	bl	800120c <HAL_GPIO_Init>
 8000dba:	2301      	movs	r3, #1
 8000dbc:	61bb      	str	r3, [r7, #24]
 8000dbe:	2302      	movs	r3, #2
 8000dc0:	61fb      	str	r3, [r7, #28]
 8000dc2:	2302      	movs	r3, #2
 8000dc4:	627b      	str	r3, [r7, #36]	@ 0x24
 8000dc6:	f107 0318 	add.w	r3, r7, #24
 8000dca:	4619      	mov	r1, r3
 8000dcc:	4807      	ldr	r0, [pc, #28]	@ (8000dec <HAL_TIM_MspPostInit+0x114>)
 8000dce:	f000 fa1d 	bl	800120c <HAL_GPIO_Init>
 8000dd2:	bf00      	nop
 8000dd4:	3728      	adds	r7, #40	@ 0x28
 8000dd6:	46bd      	mov	sp, r7
 8000dd8:	bd80      	pop	{r7, pc}
 8000dda:	bf00      	nop
 8000ddc:	40012c00 	.word	0x40012c00
 8000de0:	40021000 	.word	0x40021000
 8000de4:	40010800 	.word	0x40010800
 8000de8:	40000400 	.word	0x40000400
 8000dec:	40010c00 	.word	0x40010c00

08000df0 <HAL_UART_MspInit>:
 8000df0:	b580      	push	{r7, lr}
 8000df2:	b088      	sub	sp, #32
 8000df4:	af00      	add	r7, sp, #0
 8000df6:	6078      	str	r0, [r7, #4]
 8000df8:	f107 0310 	add.w	r3, r7, #16
 8000dfc:	2200      	movs	r2, #0
 8000dfe:	601a      	str	r2, [r3, #0]
 8000e00:	605a      	str	r2, [r3, #4]
 8000e02:	609a      	str	r2, [r3, #8]
 8000e04:	60da      	str	r2, [r3, #12]
 8000e06:	687b      	ldr	r3, [r7, #4]
 8000e08:	681b      	ldr	r3, [r3, #0]
 8000e0a:	4a1c      	ldr	r2, [pc, #112]	@ (8000e7c <HAL_UART_MspInit+0x8c>)
 8000e0c:	4293      	cmp	r3, r2
 8000e0e:	d131      	bne.n	8000e74 <HAL_UART_MspInit+0x84>
 8000e10:	4b1b      	ldr	r3, [pc, #108]	@ (8000e80 <HAL_UART_MspInit+0x90>)
 8000e12:	69db      	ldr	r3, [r3, #28]
 8000e14:	4a1a      	ldr	r2, [pc, #104]	@ (8000e80 <HAL_UART_MspInit+0x90>)
 8000e16:	f443 2380 	orr.w	r3, r3, #262144	@ 0x40000
 8000e1a:	61d3      	str	r3, [r2, #28]
 8000e1c:	4b18      	ldr	r3, [pc, #96]	@ (8000e80 <HAL_UART_MspInit+0x90>)
 8000e1e:	69db      	ldr	r3, [r3, #28]
 8000e20:	f403 2380 	and.w	r3, r3, #262144	@ 0x40000
 8000e24:	60fb      	str	r3, [r7, #12]
 8000e26:	68fb      	ldr	r3, [r7, #12]
 8000e28:	4b15      	ldr	r3, [pc, #84]	@ (8000e80 <HAL_UART_MspInit+0x90>)
 8000e2a:	699b      	ldr	r3, [r3, #24]
 8000e2c:	4a14      	ldr	r2, [pc, #80]	@ (8000e80 <HAL_UART_MspInit+0x90>)
 8000e2e:	f043 0308 	orr.w	r3, r3, #8
 8000e32:	6193      	str	r3, [r2, #24]
 8000e34:	4b12      	ldr	r3, [pc, #72]	@ (8000e80 <HAL_UART_MspInit+0x90>)
 8000e36:	699b      	ldr	r3, [r3, #24]
 8000e38:	f003 0308 	and.w	r3, r3, #8
 8000e3c:	60bb      	str	r3, [r7, #8]
 8000e3e:	68bb      	ldr	r3, [r7, #8]
 8000e40:	f44f 6380 	mov.w	r3, #1024	@ 0x400
 8000e44:	613b      	str	r3, [r7, #16]
 8000e46:	2302      	movs	r3, #2
 8000e48:	617b      	str	r3, [r7, #20]
 8000e4a:	2303      	movs	r3, #3
 8000e4c:	61fb      	str	r3, [r7, #28]
 8000e4e:	f107 0310 	add.w	r3, r7, #16
 8000e52:	4619      	mov	r1, r3
 8000e54:	480b      	ldr	r0, [pc, #44]	@ (8000e84 <HAL_UART_MspInit+0x94>)
 8000e56:	f000 f9d9 	bl	800120c <HAL_GPIO_Init>
 8000e5a:	f44f 6300 	mov.w	r3, #2048	@ 0x800
 8000e5e:	613b      	str	r3, [r7, #16]
 8000e60:	2300      	movs	r3, #0
 8000e62:	617b      	str	r3, [r7, #20]
 8000e64:	2300      	movs	r3, #0
 8000e66:	61bb      	str	r3, [r7, #24]
 8000e68:	f107 0310 	add.w	r3, r7, #16
 8000e6c:	4619      	mov	r1, r3
 8000e6e:	4805      	ldr	r0, [pc, #20]	@ (8000e84 <HAL_UART_MspInit+0x94>)
 8000e70:	f000 f9cc 	bl	800120c <HAL_GPIO_Init>
 8000e74:	bf00      	nop
 8000e76:	3720      	adds	r7, #32
 8000e78:	46bd      	mov	sp, r7
 8000e7a:	bd80      	pop	{r7, pc}
 8000e7c:	40004800 	.word	0x40004800
 8000e80:	40021000 	.word	0x40021000
 8000e84:	40010c00 	.word	0x40010c00

08000e88 <NMI_Handler>:
 8000e88:	b480      	push	{r7}
 8000e8a:	af00      	add	r7, sp, #0
 8000e8c:	bf00      	nop
 8000e8e:	e7fd      	b.n	8000e8c <NMI_Handler+0x4>

08000e90 <HardFault_Handler>:
 8000e90:	b480      	push	{r7}
 8000e92:	af00      	add	r7, sp, #0
 8000e94:	bf00      	nop
 8000e96:	e7fd      	b.n	8000e94 <HardFault_Handler+0x4>

08000e98 <MemManage_Handler>:
 8000e98:	b480      	push	{r7}
 8000e9a:	af00      	add	r7, sp, #0
 8000e9c:	bf00      	nop
 8000e9e:	e7fd      	b.n	8000e9c <MemManage_Handler+0x4>

08000ea0 <BusFault_Handler>:
 8000ea0:	b480      	push	{r7}
 8000ea2:	af00      	add	r7, sp, #0
 8000ea4:	bf00      	nop
 8000ea6:	e7fd      	b.n	8000ea4 <BusFault_Handler+0x4>

08000ea8 <UsageFault_Handler>:
 8000ea8:	b480      	push	{r7}
 8000eaa:	af00      	add	r7, sp, #0
 8000eac:	bf00      	nop
 8000eae:	e7fd      	b.n	8000eac <UsageFault_Handler+0x4>

08000eb0 <SVC_Handler>:
 8000eb0:	b480      	push	{r7}
 8000eb2:	af00      	add	r7, sp, #0
 8000eb4:	bf00      	nop
 8000eb6:	46bd      	mov	sp, r7
 8000eb8:	bc80      	pop	{r7}
 8000eba:	4770      	bx	lr

08000ebc <DebugMon_Handler>:
 8000ebc:	b480      	push	{r7}
 8000ebe:	af00      	add	r7, sp, #0
 8000ec0:	bf00      	nop
 8000ec2:	46bd      	mov	sp, r7
 8000ec4:	bc80      	pop	{r7}
 8000ec6:	4770      	bx	lr

08000ec8 <PendSV_Handler>:
 8000ec8:	b480      	push	{r7}
 8000eca:	af00      	add	r7, sp, #0
 8000ecc:	bf00      	nop
 8000ece:	46bd      	mov	sp, r7
 8000ed0:	bc80      	pop	{r7}
 8000ed2:	4770      	bx	lr

08000ed4 <SysTick_Handler>:
 8000ed4:	b580      	push	{r7, lr}
 8000ed6:	af00      	add	r7, sp, #0
 8000ed8:	f000 f874 	bl	8000fc4 <HAL_IncTick>
 8000edc:	bf00      	nop
 8000ede:	bd80      	pop	{r7, pc}

08000ee0 <SystemInit>:
 8000ee0:	b480      	push	{r7}
 8000ee2:	af00      	add	r7, sp, #0
 8000ee4:	bf00      	nop
 8000ee6:	46bd      	mov	sp, r7
 8000ee8:	bc80      	pop	{r7}
 8000eea:	4770      	bx	lr

08000eec <Reset_Handler>:
 8000eec:	480c      	ldr	r0, [pc, #48]	@ (8000f20 <LoopFillZerobss+0x12>)
 8000eee:	490d      	ldr	r1, [pc, #52]	@ (8000f24 <LoopFillZerobss+0x16>)
 8000ef0:	4a0d      	ldr	r2, [pc, #52]	@ (8000f28 <LoopFillZerobss+0x1a>)
 8000ef2:	2300      	movs	r3, #0
 8000ef4:	e002      	b.n	8000efc <LoopCopyDataInit>

08000ef6 <CopyDataInit>:
 8000ef6:	58d4      	ldr	r4, [r2, r3]
 8000ef8:	50c4      	str	r4, [r0, r3]
 8000efa:	3304      	adds	r3, #4

08000efc <LoopCopyDataInit>:
 8000efc:	18c4      	adds	r4, r0, r3
 8000efe:	428c      	cmp	r4, r1
 8000f00:	d3f9      	bcc.n	8000ef6 <CopyDataInit>
 8000f02:	4a0a      	ldr	r2, [pc, #40]	@ (8000f2c <LoopFillZerobss+0x1e>)
 8000f04:	4c0a      	ldr	r4, [pc, #40]	@ (8000f30 <LoopFillZerobss+0x22>)
 8000f06:	2300      	movs	r3, #0
 8000f08:	e001      	b.n	8000f0e <LoopFillZerobss>

08000f0a <FillZerobss>:
 8000f0a:	6013      	str	r3, [r2, #0]
 8000f0c:	3204      	adds	r2, #4

08000f0e <LoopFillZerobss>:
 8000f0e:	42a2      	cmp	r2, r4
 8000f10:	d3fb      	bcc.n	8000f0a <FillZerobss>
 8000f12:	f7ff ffe5 	bl	8000ee0 <SystemInit>
 8000f16:	f001 ffaf 	bl	8002e78 <__libc_init_array>
 8000f1a:	f7ff f917 	bl	800014c <main>
 8000f1e:	4770      	bx	lr
 8000f20:	20000000 	.word	0x20000000
 8000f24:	20000010 	.word	0x20000010
 8000f28:	08002f08 	.word	0x08002f08
 8000f2c:	20000010 	.word	0x20000010
 8000f30:	20000160 	.word	0x20000160

08000f34 <ADC1_2_IRQHandler>:
 8000f34:	e7fe      	b.n	8000f34 <ADC1_2_IRQHandler>
	...

08000f38 <HAL_Init>:
 8000f38:	b580      	push	{r7, lr}
 8000f3a:	af00      	add	r7, sp, #0
 8000f3c:	4b08      	ldr	r3, [pc, #32]	@ (8000f60 <HAL_Init+0x28>)
 8000f3e:	681b      	ldr	r3, [r3, #0]
 8000f40:	4a07      	ldr	r2, [pc, #28]	@ (8000f60 <HAL_Init+0x28>)
 8000f42:	f043 0310 	orr.w	r3, r3, #16
 8000f46:	6013      	str	r3, [r2, #0]
 8000f48:	2003      	movs	r0, #3
 8000f4a:	f000 f92b 	bl	80011a4 <HAL_NVIC_SetPriorityGrouping>
 8000f4e:	200f      	movs	r0, #15
 8000f50:	f000 f808 	bl	8000f64 <HAL_InitTick>
 8000f54:	f7ff fe4a 	bl	8000bec <HAL_MspInit>
 8000f58:	2300      	movs	r3, #0
 8000f5a:	4618      	mov	r0, r3
 8000f5c:	bd80      	pop	{r7, pc}
 8000f5e:	bf00      	nop
 8000f60:	40022000 	.word	0x40022000

08000f64 <HAL_InitTick>:
 8000f64:	b580      	push	{r7, lr}
 8000f66:	b082      	sub	sp, #8
 8000f68:	af00      	add	r7, sp, #0
 8000f6a:	6078      	str	r0, [r7, #4]
 8000f6c:	4b12      	ldr	r3, [pc, #72]	@ (8000fb8 <HAL_InitTick+0x54>)
 8000f6e:	681a      	ldr	r2, [r3, #0]
 8000f70:	4b12      	ldr	r3, [pc, #72]	@ (8000fbc <HAL_InitTick+0x58>)
 8000f72:	781b      	ldrb	r3, [r3, #0]
 8000f74:	4619      	mov	r1, r3
 8000f76:	f44f 737a 	mov.w	r3, #1000	@ 0x3e8
 8000f7a:	fbb3 f3f1 	udiv	r3, r3, r1
 8000f7e:	fbb2 f3f3 	udiv	r3, r2, r3
 8000f82:	4618      	mov	r0, r3
 8000f84:	f000 f935 	bl	80011f2 <HAL_SYSTICK_Config>
 8000f88:	4603      	mov	r3, r0
 8000f8a:	2b00      	cmp	r3, #0
 8000f8c:	d001      	beq.n	8000f92 <HAL_InitTick+0x2e>
 8000f8e:	2301      	movs	r3, #1
 8000f90:	e00e      	b.n	8000fb0 <HAL_InitTick+0x4c>
 8000f92:	687b      	ldr	r3, [r7, #4]
 8000f94:	2b0f      	cmp	r3, #15
 8000f96:	d80a      	bhi.n	8000fae <HAL_InitTick+0x4a>
 8000f98:	2200      	movs	r2, #0
 8000f9a:	6879      	ldr	r1, [r7, #4]
 8000f9c:	f04f 30ff 	mov.w	r0, #4294967295
 8000fa0:	f000 f90b 	bl	80011ba <HAL_NVIC_SetPriority>
 8000fa4:	4a06      	ldr	r2, [pc, #24]	@ (8000fc0 <HAL_InitTick+0x5c>)
 8000fa6:	687b      	ldr	r3, [r7, #4]
 8000fa8:	6013      	str	r3, [r2, #0]
 8000faa:	2300      	movs	r3, #0
 8000fac:	e000      	b.n	8000fb0 <HAL_InitTick+0x4c>
 8000fae:	2301      	movs	r3, #1
 8000fb0:	4618      	mov	r0, r3
 8000fb2:	3708      	adds	r7, #8
 8000fb4:	46bd      	mov	sp, r7
 8000fb6:	bd80      	pop	{r7, pc}
 8000fb8:	20000004 	.word	0x20000004
 8000fbc:	2000000c 	.word	0x2000000c
 8000fc0:	20000008 	.word	0x20000008

08000fc4 <HAL_IncTick>:
 8000fc4:	b480      	push	{r7}
 8000fc6:	af00      	add	r7, sp, #0
 8000fc8:	4b05      	ldr	r3, [pc, #20]	@ (8000fe0 <HAL_IncTick+0x1c>)
 8000fca:	781b      	ldrb	r3, [r3, #0]
 8000fcc:	461a      	mov	r2, r3
 8000fce:	4b05      	ldr	r3, [pc, #20]	@ (8000fe4 <HAL_IncTick+0x20>)
 8000fd0:	681b      	ldr	r3, [r3, #0]
 8000fd2:	4413      	add	r3, r2
 8000fd4:	4a03      	ldr	r2, [pc, #12]	@ (8000fe4 <HAL_IncTick+0x20>)
 8000fd6:	6013      	str	r3, [r2, #0]
 8000fd8:	bf00      	nop
 8000fda:	46bd      	mov	sp, r7
 8000fdc:	bc80      	pop	{r7}
 8000fde:	4770      	bx	lr
 8000fe0:	2000000c 	.word	0x2000000c
 8000fe4:	2000015c 	.word	0x2000015c

08000fe8 <HAL_GetTick>:
 8000fe8:	b480      	push	{r7}
 8000fea:	af00      	add	r7, sp, #0
 8000fec:	4b02      	ldr	r3, [pc, #8]	@ (8000ff8 <HAL_GetTick+0x10>)
 8000fee:	681b      	ldr	r3, [r3, #0]
 8000ff0:	4618      	mov	r0, r3
 8000ff2:	46bd      	mov	sp, r7
 8000ff4:	bc80      	pop	{r7}
 8000ff6:	4770      	bx	lr
 8000ff8:	2000015c 	.word	0x2000015c

08000ffc <HAL_Delay>:
 8000ffc:	b580      	push	{r7, lr}
 8000ffe:	b084      	sub	sp, #16
 8001000:	af00      	add	r7, sp, #0
 8001002:	6078      	str	r0, [r7, #4]
 8001004:	f7ff fff0 	bl	8000fe8 <HAL_GetTick>
 8001008:	60b8      	str	r0, [r7, #8]
 800100a:	687b      	ldr	r3, [r7, #4]
 800100c:	60fb      	str	r3, [r7, #12]
 800100e:	68fb      	ldr	r3, [r7, #12]
 8001010:	f1b3 3fff 	cmp.w	r3, #4294967295
 8001014:	d005      	beq.n	8001022 <HAL_Delay+0x26>
 8001016:	4b0a      	ldr	r3, [pc, #40]	@ (8001040 <HAL_Delay+0x44>)
 8001018:	781b      	ldrb	r3, [r3, #0]
 800101a:	461a      	mov	r2, r3
 800101c:	68fb      	ldr	r3, [r7, #12]
 800101e:	4413      	add	r3, r2
 8001020:	60fb      	str	r3, [r7, #12]
 8001022:	bf00      	nop
 8001024:	f7ff ffe0 	bl	8000fe8 <HAL_GetTick>
 8001028:	4602      	mov	r2, r0
 800102a:	68bb      	ldr	r3, [r7, #8]
 800102c:	1ad3      	subs	r3, r2, r3
 800102e:	68fa      	ldr	r2, [r7, #12]
 8001030:	429a      	cmp	r2, r3
 8001032:	d8f7      	bhi.n	8001024 <HAL_Delay+0x28>
 8001034:	bf00      	nop
 8001036:	bf00      	nop
 8001038:	3710      	adds	r7, #16
 800103a:	46bd      	mov	sp, r7
 800103c:	bd80      	pop	{r7, pc}
 800103e:	bf00      	nop
 8001040:	2000000c 	.word	0x2000000c

08001044 <__NVIC_SetPriorityGrouping>:
 8001044:	b480      	push	{r7}
 8001046:	b085      	sub	sp, #20
 8001048:	af00      	add	r7, sp, #0
 800104a:	6078      	str	r0, [r7, #4]
 800104c:	687b      	ldr	r3, [r7, #4]
 800104e:	f003 0307 	and.w	r3, r3, #7
 8001052:	60fb      	str	r3, [r7, #12]
 8001054:	4b0c      	ldr	r3, [pc, #48]	@ (8001088 <__NVIC_SetPriorityGrouping+0x44>)
 8001056:	68db      	ldr	r3, [r3, #12]
 8001058:	60bb      	str	r3, [r7, #8]
 800105a:	68ba      	ldr	r2, [r7, #8]
 800105c:	f64f 03ff 	movw	r3, #63743	@ 0xf8ff
 8001060:	4013      	ands	r3, r2
 8001062:	60bb      	str	r3, [r7, #8]
 8001064:	68fb      	ldr	r3, [r7, #12]
 8001066:	021a      	lsls	r2, r3, #8
 8001068:	68bb      	ldr	r3, [r7, #8]
 800106a:	4313      	orrs	r3, r2
 800106c:	f043 63bf 	orr.w	r3, r3, #100139008	@ 0x5f80000
 8001070:	f443 3300 	orr.w	r3, r3, #131072	@ 0x20000
 8001074:	60bb      	str	r3, [r7, #8]
 8001076:	4a04      	ldr	r2, [pc, #16]	@ (8001088 <__NVIC_SetPriorityGrouping+0x44>)
 8001078:	68bb      	ldr	r3, [r7, #8]
 800107a:	60d3      	str	r3, [r2, #12]
 800107c:	bf00      	nop
 800107e:	3714      	adds	r7, #20
 8001080:	46bd      	mov	sp, r7
 8001082:	bc80      	pop	{r7}
 8001084:	4770      	bx	lr
 8001086:	bf00      	nop
 8001088:	e000ed00 	.word	0xe000ed00

0800108c <__NVIC_GetPriorityGrouping>:
 800108c:	b480      	push	{r7}
 800108e:	af00      	add	r7, sp, #0
 8001090:	4b04      	ldr	r3, [pc, #16]	@ (80010a4 <__NVIC_GetPriorityGrouping+0x18>)
 8001092:	68db      	ldr	r3, [r3, #12]
 8001094:	0a1b      	lsrs	r3, r3, #8
 8001096:	f003 0307 	and.w	r3, r3, #7
 800109a:	4618      	mov	r0, r3
 800109c:	46bd      	mov	sp, r7
 800109e:	bc80      	pop	{r7}
 80010a0:	4770      	bx	lr
 80010a2:	bf00      	nop
 80010a4:	e000ed00 	.word	0xe000ed00

080010a8 <__NVIC_SetPriority>:
 80010a8:	b480      	push	{r7}
 80010aa:	b083      	sub	sp, #12
 80010ac:	af00      	add	r7, sp, #0
 80010ae:	4603      	mov	r3, r0
 80010b0:	6039      	str	r1, [r7, #0]
 80010b2:	71fb      	strb	r3, [r7, #7]
 80010b4:	f997 3007 	ldrsb.w	r3, [r7, #7]
 80010b8:	2b00      	cmp	r3, #0
 80010ba:	db0a      	blt.n	80010d2 <__NVIC_SetPriority+0x2a>
 80010bc:	683b      	ldr	r3, [r7, #0]
 80010be:	b2da      	uxtb	r2, r3
 80010c0:	490c      	ldr	r1, [pc, #48]	@ (80010f4 <__NVIC_SetPriority+0x4c>)
 80010c2:	f997 3007 	ldrsb.w	r3, [r7, #7]
 80010c6:	0112      	lsls	r2, r2, #4
 80010c8:	b2d2      	uxtb	r2, r2
 80010ca:	440b      	add	r3, r1
 80010cc:	f883 2300 	strb.w	r2, [r3, #768]	@ 0x300
 80010d0:	e00a      	b.n	80010e8 <__NVIC_SetPriority+0x40>
 80010d2:	683b      	ldr	r3, [r7, #0]
 80010d4:	b2da      	uxtb	r2, r3
 80010d6:	4908      	ldr	r1, [pc, #32]	@ (80010f8 <__NVIC_SetPriority+0x50>)
 80010d8:	79fb      	ldrb	r3, [r7, #7]
 80010da:	f003 030f 	and.w	r3, r3, #15
 80010de:	3b04      	subs	r3, #4
 80010e0:	0112      	lsls	r2, r2, #4
 80010e2:	b2d2      	uxtb	r2, r2
 80010e4:	440b      	add	r3, r1
 80010e6:	761a      	strb	r2, [r3, #24]
 80010e8:	bf00      	nop
 80010ea:	370c      	adds	r7, #12
 80010ec:	46bd      	mov	sp, r7
 80010ee:	bc80      	pop	{r7}
 80010f0:	4770      	bx	lr
 80010f2:	bf00      	nop
 80010f4:	e000e100 	.word	0xe000e100
 80010f8:	e000ed00 	.word	0xe000ed00

080010fc <NVIC_EncodePriority>:
 80010fc:	b480      	push	{r7}
 80010fe:	b089      	sub	sp, #36	@ 0x24
 8001100:	af00      	add	r7, sp, #0
 8001102:	60f8      	str	r0, [r7, #12]
 8001104:	60b9      	str	r1, [r7, #8]
 8001106:	607a      	str	r2, [r7, #4]
 8001108:	68fb      	ldr	r3, [r7, #12]
 800110a:	f003 0307 	and.w	r3, r3, #7
 800110e:	61fb      	str	r3, [r7, #28]
 8001110:	69fb      	ldr	r3, [r7, #28]
 8001112:	f1c3 0307 	rsb	r3, r3, #7
 8001116:	2b04      	cmp	r3, #4
 8001118:	bf28      	it	cs
 800111a:	2304      	movcs	r3, #4
 800111c:	61bb      	str	r3, [r7, #24]
 800111e:	69fb      	ldr	r3, [r7, #28]
 8001120:	3304      	adds	r3, #4
 8001122:	2b06      	cmp	r3, #6
 8001124:	d902      	bls.n	800112c <NVIC_EncodePriority+0x30>
 8001126:	69fb      	ldr	r3, [r7, #28]
 8001128:	3b03      	subs	r3, #3
 800112a:	e000      	b.n	800112e <NVIC_EncodePriority+0x32>
 800112c:	2300      	movs	r3, #0
 800112e:	617b      	str	r3, [r7, #20]
 8001130:	f04f 32ff 	mov.w	r2, #4294967295
 8001134:	69bb      	ldr	r3, [r7, #24]
 8001136:	fa02 f303 	lsl.w	r3, r2, r3
 800113a:	43da      	mvns	r2, r3
 800113c:	68bb      	ldr	r3, [r7, #8]
 800113e:	401a      	ands	r2, r3
 8001140:	697b      	ldr	r3, [r7, #20]
 8001142:	409a      	lsls	r2, r3
 8001144:	f04f 31ff 	mov.w	r1, #4294967295
 8001148:	697b      	ldr	r3, [r7, #20]
 800114a:	fa01 f303 	lsl.w	r3, r1, r3
 800114e:	43d9      	mvns	r1, r3
 8001150:	687b      	ldr	r3, [r7, #4]
 8001152:	400b      	ands	r3, r1
 8001154:	4313      	orrs	r3, r2
 8001156:	4618      	mov	r0, r3
 8001158:	3724      	adds	r7, #36	@ 0x24
 800115a:	46bd      	mov	sp, r7
 800115c:	bc80      	pop	{r7}
 800115e:	4770      	bx	lr

08001160 <SysTick_Config>:
 8001160:	b580      	push	{r7, lr}
 8001162:	b082      	sub	sp, #8
 8001164:	af00      	add	r7, sp, #0
 8001166:	6078      	str	r0, [r7, #4]
 8001168:	687b      	ldr	r3, [r7, #4]
 800116a:	3b01      	subs	r3, #1
 800116c:	f1b3 7f80 	cmp.w	r3, #16777216	@ 0x1000000
 8001170:	d301      	bcc.n	8001176 <SysTick_Config+0x16>
 8001172:	2301      	movs	r3, #1
 8001174:	e00f      	b.n	8001196 <SysTick_Config+0x36>
 8001176:	4a0a      	ldr	r2, [pc, #40]	@ (80011a0 <SysTick_Config+0x40>)
 8001178:	687b      	ldr	r3, [r7, #4]
 800117a:	3b01      	subs	r3, #1
 800117c:	6053      	str	r3, [r2, #4]
 800117e:	210f      	movs	r1, #15
 8001180:	f04f 30ff 	mov.w	r0, #4294967295
 8001184:	f7ff ff90 	bl	80010a8 <__NVIC_SetPriority>
 8001188:	4b05      	ldr	r3, [pc, #20]	@ (80011a0 <SysTick_Config+0x40>)
 800118a:	2200      	movs	r2, #0
 800118c:	609a      	str	r2, [r3, #8]
 800118e:	4b04      	ldr	r3, [pc, #16]	@ (80011a0 <SysTick_Config+0x40>)
 8001190:	2207      	movs	r2, #7
 8001192:	601a      	str	r2, [r3, #0]
 8001194:	2300      	movs	r3, #0
 8001196:	4618      	mov	r0, r3
 8001198:	3708      	adds	r7, #8
 800119a:	46bd      	mov	sp, r7
 800119c:	bd80      	pop	{r7, pc}
 800119e:	bf00      	nop
 80011a0:	e000e010 	.word	0xe000e010

080011a4 <HAL_NVIC_SetPriorityGrouping>:
 80011a4:	b580      	push	{r7, lr}
 80011a6:	b082      	sub	sp, #8
 80011a8:	af00      	add	r7, sp, #0
 80011aa:	6078      	str	r0, [r7, #4]
 80011ac:	6878      	ldr	r0, [r7, #4]
 80011ae:	f7ff ff49 	bl	8001044 <__NVIC_SetPriorityGrouping>
 80011b2:	bf00      	nop
 80011b4:	3708      	adds	r7, #8
 80011b6:	46bd      	mov	sp, r7
 80011b8:	bd80      	pop	{r7, pc}

080011ba <HAL_NVIC_SetPriority>:
 80011ba:	b580      	push	{r7, lr}
 80011bc:	b086      	sub	sp, #24
 80011be:	af00      	add	r7, sp, #0
 80011c0:	4603      	mov	r3, r0
 80011c2:	60b9      	str	r1, [r7, #8]
 80011c4:	607a      	str	r2, [r7, #4]
 80011c6:	73fb      	strb	r3, [r7, #15]
 80011c8:	2300      	movs	r3, #0
 80011ca:	617b      	str	r3, [r7, #20]
 80011cc:	f7ff ff5e 	bl	800108c <__NVIC_GetPriorityGrouping>
 80011d0:	6178      	str	r0, [r7, #20]
 80011d2:	687a      	ldr	r2, [r7, #4]
 80011d4:	68b9      	ldr	r1, [r7, #8]
 80011d6:	6978      	ldr	r0, [r7, #20]
 80011d8:	f7ff ff90 	bl	80010fc <NVIC_EncodePriority>
 80011dc:	4602      	mov	r2, r0
 80011de:	f997 300f 	ldrsb.w	r3, [r7, #15]
 80011e2:	4611      	mov	r1, r2
 80011e4:	4618      	mov	r0, r3
 80011e6:	f7ff ff5f 	bl	80010a8 <__NVIC_SetPriority>
 80011ea:	bf00      	nop
 80011ec:	3718      	adds	r7, #24
 80011ee:	46bd      	mov	sp, r7
 80011f0:	bd80      	pop	{r7, pc}

080011f2 <HAL_SYSTICK_Config>:
 80011f2:	b580      	push	{r7, lr}
 80011f4:	b082      	sub	sp, #8
 80011f6:	af00      	add	r7, sp, #0
 80011f8:	6078      	str	r0, [r7, #4]
 80011fa:	6878      	ldr	r0, [r7, #4]
 80011fc:	f7ff ffb0 	bl	8001160 <SysTick_Config>
 8001200:	4603      	mov	r3, r0
 8001202:	4618      	mov	r0, r3
 8001204:	3708      	adds	r7, #8
 8001206:	46bd      	mov	sp, r7
 8001208:	bd80      	pop	{r7, pc}
	...

0800120c <HAL_GPIO_Init>:
 800120c:	b480      	push	{r7}
 800120e:	b08b      	sub	sp, #44	@ 0x2c
 8001210:	af00      	add	r7, sp, #0
 8001212:	6078      	str	r0, [r7, #4]
 8001214:	6039      	str	r1, [r7, #0]
 8001216:	2300      	movs	r3, #0
 8001218:	627b      	str	r3, [r7, #36]	@ 0x24
 800121a:	2300      	movs	r3, #0
 800121c:	623b      	str	r3, [r7, #32]
 800121e:	e169      	b.n	80014f4 <HAL_GPIO_Init+0x2e8>
 8001220:	2201      	movs	r2, #1
 8001222:	6a7b      	ldr	r3, [r7, #36]	@ 0x24
 8001224:	fa02 f303 	lsl.w	r3, r2, r3
 8001228:	61fb      	str	r3, [r7, #28]
 800122a:	683b      	ldr	r3, [r7, #0]
 800122c:	681b      	ldr	r3, [r3, #0]
 800122e:	69fa      	ldr	r2, [r7, #28]
 8001230:	4013      	ands	r3, r2
 8001232:	61bb      	str	r3, [r7, #24]
 8001234:	69ba      	ldr	r2, [r7, #24]
 8001236:	69fb      	ldr	r3, [r7, #28]
 8001238:	429a      	cmp	r2, r3
 800123a:	f040 8158 	bne.w	80014ee <HAL_GPIO_Init+0x2e2>
 800123e:	683b      	ldr	r3, [r7, #0]
 8001240:	685b      	ldr	r3, [r3, #4]
 8001242:	4a9a      	ldr	r2, [pc, #616]	@ (80014ac <HAL_GPIO_Init+0x2a0>)
 8001244:	4293      	cmp	r3, r2
 8001246:	d05e      	beq.n	8001306 <HAL_GPIO_Init+0xfa>
 8001248:	4a98      	ldr	r2, [pc, #608]	@ (80014ac <HAL_GPIO_Init+0x2a0>)
 800124a:	4293      	cmp	r3, r2
 800124c:	d875      	bhi.n	800133a <HAL_GPIO_Init+0x12e>
 800124e:	4a98      	ldr	r2, [pc, #608]	@ (80014b0 <HAL_GPIO_Init+0x2a4>)
 8001250:	4293      	cmp	r3, r2
 8001252:	d058      	beq.n	8001306 <HAL_GPIO_Init+0xfa>
 8001254:	4a96      	ldr	r2, [pc, #600]	@ (80014b0 <HAL_GPIO_Init+0x2a4>)
 8001256:	4293      	cmp	r3, r2
 8001258:	d86f      	bhi.n	800133a <HAL_GPIO_Init+0x12e>
 800125a:	4a96      	ldr	r2, [pc, #600]	@ (80014b4 <HAL_GPIO_Init+0x2a8>)
 800125c:	4293      	cmp	r3, r2
 800125e:	d052      	beq.n	8001306 <HAL_GPIO_Init+0xfa>
 8001260:	4a94      	ldr	r2, [pc, #592]	@ (80014b4 <HAL_GPIO_Init+0x2a8>)
 8001262:	4293      	cmp	r3, r2
 8001264:	d869      	bhi.n	800133a <HAL_GPIO_Init+0x12e>
 8001266:	4a94      	ldr	r2, [pc, #592]	@ (80014b8 <HAL_GPIO_Init+0x2ac>)
 8001268:	4293      	cmp	r3, r2
 800126a:	d04c      	beq.n	8001306 <HAL_GPIO_Init+0xfa>
 800126c:	4a92      	ldr	r2, [pc, #584]	@ (80014b8 <HAL_GPIO_Init+0x2ac>)
 800126e:	4293      	cmp	r3, r2
 8001270:	d863      	bhi.n	800133a <HAL_GPIO_Init+0x12e>
 8001272:	4a92      	ldr	r2, [pc, #584]	@ (80014bc <HAL_GPIO_Init+0x2b0>)
 8001274:	4293      	cmp	r3, r2
 8001276:	d046      	beq.n	8001306 <HAL_GPIO_Init+0xfa>
 8001278:	4a90      	ldr	r2, [pc, #576]	@ (80014bc <HAL_GPIO_Init+0x2b0>)
 800127a:	4293      	cmp	r3, r2
 800127c:	d85d      	bhi.n	800133a <HAL_GPIO_Init+0x12e>
 800127e:	2b12      	cmp	r3, #18
 8001280:	d82a      	bhi.n	80012d8 <HAL_GPIO_Init+0xcc>
 8001282:	2b12      	cmp	r3, #18
 8001284:	d859      	bhi.n	800133a <HAL_GPIO_Init+0x12e>
 8001286:	a201      	add	r2, pc, #4	@ (adr r2, 800128c <HAL_GPIO_Init+0x80>)
 8001288:	f852 f023 	ldr.w	pc, [r2, r3, lsl #2]
 800128c:	08001307 	.word	0x08001307
 8001290:	080012e1 	.word	0x080012e1
 8001294:	080012f3 	.word	0x080012f3
 8001298:	08001335 	.word	0x08001335
 800129c:	0800133b 	.word	0x0800133b
 80012a0:	0800133b 	.word	0x0800133b
 80012a4:	0800133b 	.word	0x0800133b
 80012a8:	0800133b 	.word	0x0800133b
 80012ac:	0800133b 	.word	0x0800133b
 80012b0:	0800133b 	.word	0x0800133b
 80012b4:	0800133b 	.word	0x0800133b
 80012b8:	0800133b 	.word	0x0800133b
 80012bc:	0800133b 	.word	0x0800133b
 80012c0:	0800133b 	.word	0x0800133b
 80012c4:	0800133b 	.word	0x0800133b
 80012c8:	0800133b 	.word	0x0800133b
 80012cc:	0800133b 	.word	0x0800133b
 80012d0:	080012e9 	.word	0x080012e9
 80012d4:	080012fd 	.word	0x080012fd
 80012d8:	4a79      	ldr	r2, [pc, #484]	@ (80014c0 <HAL_GPIO_Init+0x2b4>)
 80012da:	4293      	cmp	r3, r2
 80012dc:	d013      	beq.n	8001306 <HAL_GPIO_Init+0xfa>
 80012de:	e02c      	b.n	800133a <HAL_GPIO_Init+0x12e>
 80012e0:	683b      	ldr	r3, [r7, #0]
 80012e2:	68db      	ldr	r3, [r3, #12]
 80012e4:	623b      	str	r3, [r7, #32]
 80012e6:	e029      	b.n	800133c <HAL_GPIO_Init+0x130>
 80012e8:	683b      	ldr	r3, [r7, #0]
 80012ea:	68db      	ldr	r3, [r3, #12]
 80012ec:	3304      	adds	r3, #4
 80012ee:	623b      	str	r3, [r7, #32]
 80012f0:	e024      	b.n	800133c <HAL_GPIO_Init+0x130>
 80012f2:	683b      	ldr	r3, [r7, #0]
 80012f4:	68db      	ldr	r3, [r3, #12]
 80012f6:	3308      	adds	r3, #8
 80012f8:	623b      	str	r3, [r7, #32]
 80012fa:	e01f      	b.n	800133c <HAL_GPIO_Init+0x130>
 80012fc:	683b      	ldr	r3, [r7, #0]
 80012fe:	68db      	ldr	r3, [r3, #12]
 8001300:	330c      	adds	r3, #12
 8001302:	623b      	str	r3, [r7, #32]
 8001304:	e01a      	b.n	800133c <HAL_GPIO_Init+0x130>
 8001306:	683b      	ldr	r3, [r7, #0]
 8001308:	689b      	ldr	r3, [r3, #8]
 800130a:	2b00      	cmp	r3, #0
 800130c:	d102      	bne.n	8001314 <HAL_GPIO_Init+0x108>
 800130e:	2304      	movs	r3, #4
 8001310:	623b      	str	r3, [r7, #32]
 8001312:	e013      	b.n	800133c <HAL_GPIO_Init+0x130>
 8001314:	683b      	ldr	r3, [r7, #0]
 8001316:	689b      	ldr	r3, [r3, #8]
 8001318:	2b01      	cmp	r3, #1
 800131a:	d105      	bne.n	8001328 <HAL_GPIO_Init+0x11c>
 800131c:	2308      	movs	r3, #8
 800131e:	623b      	str	r3, [r7, #32]
 8001320:	687b      	ldr	r3, [r7, #4]
 8001322:	69fa      	ldr	r2, [r7, #28]
 8001324:	611a      	str	r2, [r3, #16]
 8001326:	e009      	b.n	800133c <HAL_GPIO_Init+0x130>
 8001328:	2308      	movs	r3, #8
 800132a:	623b      	str	r3, [r7, #32]
 800132c:	687b      	ldr	r3, [r7, #4]
 800132e:	69fa      	ldr	r2, [r7, #28]
 8001330:	615a      	str	r2, [r3, #20]
 8001332:	e003      	b.n	800133c <HAL_GPIO_Init+0x130>
 8001334:	2300      	movs	r3, #0
 8001336:	623b      	str	r3, [r7, #32]
 8001338:	e000      	b.n	800133c <HAL_GPIO_Init+0x130>
 800133a:	bf00      	nop
 800133c:	69bb      	ldr	r3, [r7, #24]
 800133e:	2bff      	cmp	r3, #255	@ 0xff
 8001340:	d801      	bhi.n	8001346 <HAL_GPIO_Init+0x13a>
 8001342:	687b      	ldr	r3, [r7, #4]
 8001344:	e001      	b.n	800134a <HAL_GPIO_Init+0x13e>
 8001346:	687b      	ldr	r3, [r7, #4]
 8001348:	3304      	adds	r3, #4
 800134a:	617b      	str	r3, [r7, #20]
 800134c:	69bb      	ldr	r3, [r7, #24]
 800134e:	2bff      	cmp	r3, #255	@ 0xff
 8001350:	d802      	bhi.n	8001358 <HAL_GPIO_Init+0x14c>
 8001352:	6a7b      	ldr	r3, [r7, #36]	@ 0x24
 8001354:	009b      	lsls	r3, r3, #2
 8001356:	e002      	b.n	800135e <HAL_GPIO_Init+0x152>
 8001358:	6a7b      	ldr	r3, [r7, #36]	@ 0x24
 800135a:	3b08      	subs	r3, #8
 800135c:	009b      	lsls	r3, r3, #2
 800135e:	613b      	str	r3, [r7, #16]
 8001360:	697b      	ldr	r3, [r7, #20]
 8001362:	681a      	ldr	r2, [r3, #0]
 8001364:	210f      	movs	r1, #15
 8001366:	693b      	ldr	r3, [r7, #16]
 8001368:	fa01 f303 	lsl.w	r3, r1, r3
 800136c:	43db      	mvns	r3, r3
 800136e:	401a      	ands	r2, r3
 8001370:	6a39      	ldr	r1, [r7, #32]
 8001372:	693b      	ldr	r3, [r7, #16]
 8001374:	fa01 f303 	lsl.w	r3, r1, r3
 8001378:	431a      	orrs	r2, r3
 800137a:	697b      	ldr	r3, [r7, #20]
 800137c:	601a      	str	r2, [r3, #0]
 800137e:	683b      	ldr	r3, [r7, #0]
 8001380:	685b      	ldr	r3, [r3, #4]
 8001382:	f003 5380 	and.w	r3, r3, #268435456	@ 0x10000000
 8001386:	2b00      	cmp	r3, #0
 8001388:	f000 80b1 	beq.w	80014ee <HAL_GPIO_Init+0x2e2>
 800138c:	4b4d      	ldr	r3, [pc, #308]	@ (80014c4 <HAL_GPIO_Init+0x2b8>)
 800138e:	699b      	ldr	r3, [r3, #24]
 8001390:	4a4c      	ldr	r2, [pc, #304]	@ (80014c4 <HAL_GPIO_Init+0x2b8>)
 8001392:	f043 0301 	orr.w	r3, r3, #1
 8001396:	6193      	str	r3, [r2, #24]
 8001398:	4b4a      	ldr	r3, [pc, #296]	@ (80014c4 <HAL_GPIO_Init+0x2b8>)
 800139a:	699b      	ldr	r3, [r3, #24]
 800139c:	f003 0301 	and.w	r3, r3, #1
 80013a0:	60bb      	str	r3, [r7, #8]
 80013a2:	68bb      	ldr	r3, [r7, #8]
 80013a4:	4a48      	ldr	r2, [pc, #288]	@ (80014c8 <HAL_GPIO_Init+0x2bc>)
 80013a6:	6a7b      	ldr	r3, [r7, #36]	@ 0x24
 80013a8:	089b      	lsrs	r3, r3, #2
 80013aa:	3302      	adds	r3, #2
 80013ac:	f852 3023 	ldr.w	r3, [r2, r3, lsl #2]
 80013b0:	60fb      	str	r3, [r7, #12]
 80013b2:	6a7b      	ldr	r3, [r7, #36]	@ 0x24
 80013b4:	f003 0303 	and.w	r3, r3, #3
 80013b8:	009b      	lsls	r3, r3, #2
 80013ba:	220f      	movs	r2, #15
 80013bc:	fa02 f303 	lsl.w	r3, r2, r3
 80013c0:	43db      	mvns	r3, r3
 80013c2:	68fa      	ldr	r2, [r7, #12]
 80013c4:	4013      	ands	r3, r2
 80013c6:	60fb      	str	r3, [r7, #12]
 80013c8:	687b      	ldr	r3, [r7, #4]
 80013ca:	4a40      	ldr	r2, [pc, #256]	@ (80014cc <HAL_GPIO_Init+0x2c0>)
 80013cc:	4293      	cmp	r3, r2
 80013ce:	d013      	beq.n	80013f8 <HAL_GPIO_Init+0x1ec>
 80013d0:	687b      	ldr	r3, [r7, #4]
 80013d2:	4a3f      	ldr	r2, [pc, #252]	@ (80014d0 <HAL_GPIO_Init+0x2c4>)
 80013d4:	4293      	cmp	r3, r2
 80013d6:	d00d      	beq.n	80013f4 <HAL_GPIO_Init+0x1e8>
 80013d8:	687b      	ldr	r3, [r7, #4]
 80013da:	4a3e      	ldr	r2, [pc, #248]	@ (80014d4 <HAL_GPIO_Init+0x2c8>)
 80013dc:	4293      	cmp	r3, r2
 80013de:	d007      	beq.n	80013f0 <HAL_GPIO_Init+0x1e4>
 80013e0:	687b      	ldr	r3, [r7, #4]
 80013e2:	4a3d      	ldr	r2, [pc, #244]	@ (80014d8 <HAL_GPIO_Init+0x2cc>)
 80013e4:	4293      	cmp	r3, r2
 80013e6:	d101      	bne.n	80013ec <HAL_GPIO_Init+0x1e0>
 80013e8:	2303      	movs	r3, #3
 80013ea:	e006      	b.n	80013fa <HAL_GPIO_Init+0x1ee>
 80013ec:	2304      	movs	r3, #4
 80013ee:	e004      	b.n	80013fa <HAL_GPIO_Init+0x1ee>
 80013f0:	2302      	movs	r3, #2
 80013f2:	e002      	b.n	80013fa <HAL_GPIO_Init+0x1ee>
 80013f4:	2301      	movs	r3, #1
 80013f6:	e000      	b.n	80013fa <HAL_GPIO_Init+0x1ee>
 80013f8:	2300      	movs	r3, #0
 80013fa:	6a7a      	ldr	r2, [r7, #36]	@ 0x24
 80013fc:	f002 0203 	and.w	r2, r2, #3
 8001400:	0092      	lsls	r2, r2, #2
 8001402:	4093      	lsls	r3, r2
 8001404:	68fa      	ldr	r2, [r7, #12]
 8001406:	4313      	orrs	r3, r2
 8001408:	60fb      	str	r3, [r7, #12]
 800140a:	492f      	ldr	r1, [pc, #188]	@ (80014c8 <HAL_GPIO_Init+0x2bc>)
 800140c:	6a7b      	ldr	r3, [r7, #36]	@ 0x24
 800140e:	089b      	lsrs	r3, r3, #2
 8001410:	3302      	adds	r3, #2
 8001412:	68fa      	ldr	r2, [r7, #12]
 8001414:	f841 2023 	str.w	r2, [r1, r3, lsl #2]
 8001418:	683b      	ldr	r3, [r7, #0]
 800141a:	685b      	ldr	r3, [r3, #4]
 800141c:	f403 3380 	and.w	r3, r3, #65536	@ 0x10000
 8001420:	2b00      	cmp	r3, #0
 8001422:	d006      	beq.n	8001432 <HAL_GPIO_Init+0x226>
 8001424:	4b2d      	ldr	r3, [pc, #180]	@ (80014dc <HAL_GPIO_Init+0x2d0>)
 8001426:	681a      	ldr	r2, [r3, #0]
 8001428:	492c      	ldr	r1, [pc, #176]	@ (80014dc <HAL_GPIO_Init+0x2d0>)
 800142a:	69bb      	ldr	r3, [r7, #24]
 800142c:	4313      	orrs	r3, r2
 800142e:	600b      	str	r3, [r1, #0]
 8001430:	e006      	b.n	8001440 <HAL_GPIO_Init+0x234>
 8001432:	4b2a      	ldr	r3, [pc, #168]	@ (80014dc <HAL_GPIO_Init+0x2d0>)
 8001434:	681a      	ldr	r2, [r3, #0]
 8001436:	69bb      	ldr	r3, [r7, #24]
 8001438:	43db      	mvns	r3, r3
 800143a:	4928      	ldr	r1, [pc, #160]	@ (80014dc <HAL_GPIO_Init+0x2d0>)
 800143c:	4013      	ands	r3, r2
 800143e:	600b      	str	r3, [r1, #0]
 8001440:	683b      	ldr	r3, [r7, #0]
 8001442:	685b      	ldr	r3, [r3, #4]
 8001444:	f403 3300 	and.w	r3, r3, #131072	@ 0x20000
 8001448:	2b00      	cmp	r3, #0
 800144a:	d006      	beq.n	800145a <HAL_GPIO_Init+0x24e>
 800144c:	4b23      	ldr	r3, [pc, #140]	@ (80014dc <HAL_GPIO_Init+0x2d0>)
 800144e:	685a      	ldr	r2, [r3, #4]
 8001450:	4922      	ldr	r1, [pc, #136]	@ (80014dc <HAL_GPIO_Init+0x2d0>)
 8001452:	69bb      	ldr	r3, [r7, #24]
 8001454:	4313      	orrs	r3, r2
 8001456:	604b      	str	r3, [r1, #4]
 8001458:	e006      	b.n	8001468 <HAL_GPIO_Init+0x25c>
 800145a:	4b20      	ldr	r3, [pc, #128]	@ (80014dc <HAL_GPIO_Init+0x2d0>)
 800145c:	685a      	ldr	r2, [r3, #4]
 800145e:	69bb      	ldr	r3, [r7, #24]
 8001460:	43db      	mvns	r3, r3
 8001462:	491e      	ldr	r1, [pc, #120]	@ (80014dc <HAL_GPIO_Init+0x2d0>)
 8001464:	4013      	ands	r3, r2
 8001466:	604b      	str	r3, [r1, #4]
 8001468:	683b      	ldr	r3, [r7, #0]
 800146a:	685b      	ldr	r3, [r3, #4]
 800146c:	f403 1380 	and.w	r3, r3, #1048576	@ 0x100000
 8001470:	2b00      	cmp	r3, #0
 8001472:	d006      	beq.n	8001482 <HAL_GPIO_Init+0x276>
 8001474:	4b19      	ldr	r3, [pc, #100]	@ (80014dc <HAL_GPIO_Init+0x2d0>)
 8001476:	689a      	ldr	r2, [r3, #8]
 8001478:	4918      	ldr	r1, [pc, #96]	@ (80014dc <HAL_GPIO_Init+0x2d0>)
 800147a:	69bb      	ldr	r3, [r7, #24]
 800147c:	4313      	orrs	r3, r2
 800147e:	608b      	str	r3, [r1, #8]
 8001480:	e006      	b.n	8001490 <HAL_GPIO_Init+0x284>
 8001482:	4b16      	ldr	r3, [pc, #88]	@ (80014dc <HAL_GPIO_Init+0x2d0>)
 8001484:	689a      	ldr	r2, [r3, #8]
 8001486:	69bb      	ldr	r3, [r7, #24]
 8001488:	43db      	mvns	r3, r3
 800148a:	4914      	ldr	r1, [pc, #80]	@ (80014dc <HAL_GPIO_Init+0x2d0>)
 800148c:	4013      	ands	r3, r2
 800148e:	608b      	str	r3, [r1, #8]
 8001490:	683b      	ldr	r3, [r7, #0]
 8001492:	685b      	ldr	r3, [r3, #4]
 8001494:	f403 1300 	and.w	r3, r3, #2097152	@ 0x200000
 8001498:	2b00      	cmp	r3, #0
 800149a:	d021      	beq.n	80014e0 <HAL_GPIO_Init+0x2d4>
 800149c:	4b0f      	ldr	r3, [pc, #60]	@ (80014dc <HAL_GPIO_Init+0x2d0>)
 800149e:	68da      	ldr	r2, [r3, #12]
 80014a0:	490e      	ldr	r1, [pc, #56]	@ (80014dc <HAL_GPIO_Init+0x2d0>)
 80014a2:	69bb      	ldr	r3, [r7, #24]
 80014a4:	4313      	orrs	r3, r2
 80014a6:	60cb      	str	r3, [r1, #12]
 80014a8:	e021      	b.n	80014ee <HAL_GPIO_Init+0x2e2>
 80014aa:	bf00      	nop
 80014ac:	10320000 	.word	0x10320000
 80014b0:	10310000 	.word	0x10310000
 80014b4:	10220000 	.word	0x10220000
 80014b8:	10210000 	.word	0x10210000
 80014bc:	10120000 	.word	0x10120000
 80014c0:	10110000 	.word	0x10110000
 80014c4:	40021000 	.word	0x40021000
 80014c8:	40010000 	.word	0x40010000
 80014cc:	40010800 	.word	0x40010800
 80014d0:	40010c00 	.word	0x40010c00
 80014d4:	40011000 	.word	0x40011000
 80014d8:	40011400 	.word	0x40011400
 80014dc:	40010400 	.word	0x40010400
 80014e0:	4b0b      	ldr	r3, [pc, #44]	@ (8001510 <HAL_GPIO_Init+0x304>)
 80014e2:	68da      	ldr	r2, [r3, #12]
 80014e4:	69bb      	ldr	r3, [r7, #24]
 80014e6:	43db      	mvns	r3, r3
 80014e8:	4909      	ldr	r1, [pc, #36]	@ (8001510 <HAL_GPIO_Init+0x304>)
 80014ea:	4013      	ands	r3, r2
 80014ec:	60cb      	str	r3, [r1, #12]
 80014ee:	6a7b      	ldr	r3, [r7, #36]	@ 0x24
 80014f0:	3301      	adds	r3, #1
 80014f2:	627b      	str	r3, [r7, #36]	@ 0x24
 80014f4:	683b      	ldr	r3, [r7, #0]
 80014f6:	681a      	ldr	r2, [r3, #0]
 80014f8:	6a7b      	ldr	r3, [r7, #36]	@ 0x24
 80014fa:	fa22 f303 	lsr.w	r3, r2, r3
 80014fe:	2b00      	cmp	r3, #0
 8001500:	f47f ae8e 	bne.w	8001220 <HAL_GPIO_Init+0x14>
 8001504:	bf00      	nop
 8001506:	bf00      	nop
 8001508:	372c      	adds	r7, #44	@ 0x2c
 800150a:	46bd      	mov	sp, r7
 800150c:	bc80      	pop	{r7}
 800150e:	4770      	bx	lr
 8001510:	40010400 	.word	0x40010400

08001514 <HAL_GPIO_WritePin>:
 8001514:	b480      	push	{r7}
 8001516:	b083      	sub	sp, #12
 8001518:	af00      	add	r7, sp, #0
 800151a:	6078      	str	r0, [r7, #4]
 800151c:	460b      	mov	r3, r1
 800151e:	807b      	strh	r3, [r7, #2]
 8001520:	4613      	mov	r3, r2
 8001522:	707b      	strb	r3, [r7, #1]
 8001524:	787b      	ldrb	r3, [r7, #1]
 8001526:	2b00      	cmp	r3, #0
 8001528:	d003      	beq.n	8001532 <HAL_GPIO_WritePin+0x1e>
 800152a:	887a      	ldrh	r2, [r7, #2]
 800152c:	687b      	ldr	r3, [r7, #4]
 800152e:	611a      	str	r2, [r3, #16]
 8001530:	e003      	b.n	800153a <HAL_GPIO_WritePin+0x26>
 8001532:	887b      	ldrh	r3, [r7, #2]
 8001534:	041a      	lsls	r2, r3, #16
 8001536:	687b      	ldr	r3, [r7, #4]
 8001538:	611a      	str	r2, [r3, #16]
 800153a:	bf00      	nop
 800153c:	370c      	adds	r7, #12
 800153e:	46bd      	mov	sp, r7
 8001540:	bc80      	pop	{r7}
 8001542:	4770      	bx	lr

08001544 <HAL_RCC_OscConfig>:
 8001544:	b580      	push	{r7, lr}
 8001546:	b086      	sub	sp, #24
 8001548:	af00      	add	r7, sp, #0
 800154a:	6078      	str	r0, [r7, #4]
 800154c:	687b      	ldr	r3, [r7, #4]
 800154e:	2b00      	cmp	r3, #0
 8001550:	d101      	bne.n	8001556 <HAL_RCC_OscConfig+0x12>
 8001552:	2301      	movs	r3, #1
 8001554:	e272      	b.n	8001a3c <HAL_RCC_OscConfig+0x4f8>
 8001556:	687b      	ldr	r3, [r7, #4]
 8001558:	681b      	ldr	r3, [r3, #0]
 800155a:	f003 0301 	and.w	r3, r3, #1
 800155e:	2b00      	cmp	r3, #0
 8001560:	f000 8087 	beq.w	8001672 <HAL_RCC_OscConfig+0x12e>
 8001564:	4b92      	ldr	r3, [pc, #584]	@ (80017b0 <HAL_RCC_OscConfig+0x26c>)
 8001566:	685b      	ldr	r3, [r3, #4]
 8001568:	f003 030c 	and.w	r3, r3, #12
 800156c:	2b04      	cmp	r3, #4
 800156e:	d00c      	beq.n	800158a <HAL_RCC_OscConfig+0x46>
 8001570:	4b8f      	ldr	r3, [pc, #572]	@ (80017b0 <HAL_RCC_OscConfig+0x26c>)
 8001572:	685b      	ldr	r3, [r3, #4]
 8001574:	f003 030c 	and.w	r3, r3, #12
 8001578:	2b08      	cmp	r3, #8
 800157a:	d112      	bne.n	80015a2 <HAL_RCC_OscConfig+0x5e>
 800157c:	4b8c      	ldr	r3, [pc, #560]	@ (80017b0 <HAL_RCC_OscConfig+0x26c>)
 800157e:	685b      	ldr	r3, [r3, #4]
 8001580:	f403 3380 	and.w	r3, r3, #65536	@ 0x10000
 8001584:	f5b3 3f80 	cmp.w	r3, #65536	@ 0x10000
 8001588:	d10b      	bne.n	80015a2 <HAL_RCC_OscConfig+0x5e>
 800158a:	4b89      	ldr	r3, [pc, #548]	@ (80017b0 <HAL_RCC_OscConfig+0x26c>)
 800158c:	681b      	ldr	r3, [r3, #0]
 800158e:	f403 3300 	and.w	r3, r3, #131072	@ 0x20000
 8001592:	2b00      	cmp	r3, #0
 8001594:	d06c      	beq.n	8001670 <HAL_RCC_OscConfig+0x12c>
 8001596:	687b      	ldr	r3, [r7, #4]
 8001598:	685b      	ldr	r3, [r3, #4]
 800159a:	2b00      	cmp	r3, #0
 800159c:	d168      	bne.n	8001670 <HAL_RCC_OscConfig+0x12c>
 800159e:	2301      	movs	r3, #1
 80015a0:	e24c      	b.n	8001a3c <HAL_RCC_OscConfig+0x4f8>
 80015a2:	687b      	ldr	r3, [r7, #4]
 80015a4:	685b      	ldr	r3, [r3, #4]
 80015a6:	f5b3 3f80 	cmp.w	r3, #65536	@ 0x10000
 80015aa:	d106      	bne.n	80015ba <HAL_RCC_OscConfig+0x76>
 80015ac:	4b80      	ldr	r3, [pc, #512]	@ (80017b0 <HAL_RCC_OscConfig+0x26c>)
 80015ae:	681b      	ldr	r3, [r3, #0]
 80015b0:	4a7f      	ldr	r2, [pc, #508]	@ (80017b0 <HAL_RCC_OscConfig+0x26c>)
 80015b2:	f443 3380 	orr.w	r3, r3, #65536	@ 0x10000
 80015b6:	6013      	str	r3, [r2, #0]
 80015b8:	e02e      	b.n	8001618 <HAL_RCC_OscConfig+0xd4>
 80015ba:	687b      	ldr	r3, [r7, #4]
 80015bc:	685b      	ldr	r3, [r3, #4]
 80015be:	2b00      	cmp	r3, #0
 80015c0:	d10c      	bne.n	80015dc <HAL_RCC_OscConfig+0x98>
 80015c2:	4b7b      	ldr	r3, [pc, #492]	@ (80017b0 <HAL_RCC_OscConfig+0x26c>)
 80015c4:	681b      	ldr	r3, [r3, #0]
 80015c6:	4a7a      	ldr	r2, [pc, #488]	@ (80017b0 <HAL_RCC_OscConfig+0x26c>)
 80015c8:	f423 3380 	bic.w	r3, r3, #65536	@ 0x10000
 80015cc:	6013      	str	r3, [r2, #0]
 80015ce:	4b78      	ldr	r3, [pc, #480]	@ (80017b0 <HAL_RCC_OscConfig+0x26c>)
 80015d0:	681b      	ldr	r3, [r3, #0]
 80015d2:	4a77      	ldr	r2, [pc, #476]	@ (80017b0 <HAL_RCC_OscConfig+0x26c>)
 80015d4:	f423 2380 	bic.w	r3, r3, #262144	@ 0x40000
 80015d8:	6013      	str	r3, [r2, #0]
 80015da:	e01d      	b.n	8001618 <HAL_RCC_OscConfig+0xd4>
 80015dc:	687b      	ldr	r3, [r7, #4]
 80015de:	685b      	ldr	r3, [r3, #4]
 80015e0:	f5b3 2fa0 	cmp.w	r3, #327680	@ 0x50000
 80015e4:	d10c      	bne.n	8001600 <HAL_RCC_OscConfig+0xbc>
 80015e6:	4b72      	ldr	r3, [pc, #456]	@ (80017b0 <HAL_RCC_OscConfig+0x26c>)
 80015e8:	681b      	ldr	r3, [r3, #0]
 80015ea:	4a71      	ldr	r2, [pc, #452]	@ (80017b0 <HAL_RCC_OscConfig+0x26c>)
 80015ec:	f443 2380 	orr.w	r3, r3, #262144	@ 0x40000
 80015f0:	6013      	str	r3, [r2, #0]
 80015f2:	4b6f      	ldr	r3, [pc, #444]	@ (80017b0 <HAL_RCC_OscConfig+0x26c>)
 80015f4:	681b      	ldr	r3, [r3, #0]
 80015f6:	4a6e      	ldr	r2, [pc, #440]	@ (80017b0 <HAL_RCC_OscConfig+0x26c>)
 80015f8:	f443 3380 	orr.w	r3, r3, #65536	@ 0x10000
 80015fc:	6013      	str	r3, [r2, #0]
 80015fe:	e00b      	b.n	8001618 <HAL_RCC_OscConfig+0xd4>
 8001600:	4b6b      	ldr	r3, [pc, #428]	@ (80017b0 <HAL_RCC_OscConfig+0x26c>)
 8001602:	681b      	ldr	r3, [r3, #0]
 8001604:	4a6a      	ldr	r2, [pc, #424]	@ (80017b0 <HAL_RCC_OscConfig+0x26c>)
 8001606:	f423 3380 	bic.w	r3, r3, #65536	@ 0x10000
 800160a:	6013      	str	r3, [r2, #0]
 800160c:	4b68      	ldr	r3, [pc, #416]	@ (80017b0 <HAL_RCC_OscConfig+0x26c>)
 800160e:	681b      	ldr	r3, [r3, #0]
 8001610:	4a67      	ldr	r2, [pc, #412]	@ (80017b0 <HAL_RCC_OscConfig+0x26c>)
 8001612:	f423 2380 	bic.w	r3, r3, #262144	@ 0x40000
 8001616:	6013      	str	r3, [r2, #0]
 8001618:	687b      	ldr	r3, [r7, #4]
 800161a:	685b      	ldr	r3, [r3, #4]
 800161c:	2b00      	cmp	r3, #0
 800161e:	d013      	beq.n	8001648 <HAL_RCC_OscConfig+0x104>
 8001620:	f7ff fce2 	bl	8000fe8 <HAL_GetTick>
 8001624:	6138      	str	r0, [r7, #16]
 8001626:	e008      	b.n	800163a <HAL_RCC_OscConfig+0xf6>
 8001628:	f7ff fcde 	bl	8000fe8 <HAL_GetTick>
 800162c:	4602      	mov	r2, r0
 800162e:	693b      	ldr	r3, [r7, #16]
 8001630:	1ad3      	subs	r3, r2, r3
 8001632:	2b64      	cmp	r3, #100	@ 0x64
 8001634:	d901      	bls.n	800163a <HAL_RCC_OscConfig+0xf6>
 8001636:	2303      	movs	r3, #3
 8001638:	e200      	b.n	8001a3c <HAL_RCC_OscConfig+0x4f8>
 800163a:	4b5d      	ldr	r3, [pc, #372]	@ (80017b0 <HAL_RCC_OscConfig+0x26c>)
 800163c:	681b      	ldr	r3, [r3, #0]
 800163e:	f403 3300 	and.w	r3, r3, #131072	@ 0x20000
 8001642:	2b00      	cmp	r3, #0
 8001644:	d0f0      	beq.n	8001628 <HAL_RCC_OscConfig+0xe4>
 8001646:	e014      	b.n	8001672 <HAL_RCC_OscConfig+0x12e>
 8001648:	f7ff fcce 	bl	8000fe8 <HAL_GetTick>
 800164c:	6138      	str	r0, [r7, #16]
 800164e:	e008      	b.n	8001662 <HAL_RCC_OscConfig+0x11e>
 8001650:	f7ff fcca 	bl	8000fe8 <HAL_GetTick>
 8001654:	4602      	mov	r2, r0
 8001656:	693b      	ldr	r3, [r7, #16]
 8001658:	1ad3      	subs	r3, r2, r3
 800165a:	2b64      	cmp	r3, #100	@ 0x64
 800165c:	d901      	bls.n	8001662 <HAL_RCC_OscConfig+0x11e>
 800165e:	2303      	movs	r3, #3
 8001660:	e1ec      	b.n	8001a3c <HAL_RCC_OscConfig+0x4f8>
 8001662:	4b53      	ldr	r3, [pc, #332]	@ (80017b0 <HAL_RCC_OscConfig+0x26c>)
 8001664:	681b      	ldr	r3, [r3, #0]
 8001666:	f403 3300 	and.w	r3, r3, #131072	@ 0x20000
 800166a:	2b00      	cmp	r3, #0
 800166c:	d1f0      	bne.n	8001650 <HAL_RCC_OscConfig+0x10c>
 800166e:	e000      	b.n	8001672 <HAL_RCC_OscConfig+0x12e>
 8001670:	bf00      	nop
 8001672:	687b      	ldr	r3, [r7, #4]
 8001674:	681b      	ldr	r3, [r3, #0]
 8001676:	f003 0302 	and.w	r3, r3, #2
 800167a:	2b00      	cmp	r3, #0
 800167c:	d063      	beq.n	8001746 <HAL_RCC_OscConfig+0x202>
 800167e:	4b4c      	ldr	r3, [pc, #304]	@ (80017b0 <HAL_RCC_OscConfig+0x26c>)
 8001680:	685b      	ldr	r3, [r3, #4]
 8001682:	f003 030c 	and.w	r3, r3, #12
 8001686:	2b00      	cmp	r3, #0
 8001688:	d00b      	beq.n	80016a2 <HAL_RCC_OscConfig+0x15e>
 800168a:	4b49      	ldr	r3, [pc, #292]	@ (80017b0 <HAL_RCC_OscConfig+0x26c>)
 800168c:	685b      	ldr	r3, [r3, #4]
 800168e:	f003 030c 	and.w	r3, r3, #12
 8001692:	2b08      	cmp	r3, #8
 8001694:	d11c      	bne.n	80016d0 <HAL_RCC_OscConfig+0x18c>
 8001696:	4b46      	ldr	r3, [pc, #280]	@ (80017b0 <HAL_RCC_OscConfig+0x26c>)
 8001698:	685b      	ldr	r3, [r3, #4]
 800169a:	f403 3380 	and.w	r3, r3, #65536	@ 0x10000
 800169e:	2b00      	cmp	r3, #0
 80016a0:	d116      	bne.n	80016d0 <HAL_RCC_OscConfig+0x18c>
 80016a2:	4b43      	ldr	r3, [pc, #268]	@ (80017b0 <HAL_RCC_OscConfig+0x26c>)
 80016a4:	681b      	ldr	r3, [r3, #0]
 80016a6:	f003 0302 	and.w	r3, r3, #2
 80016aa:	2b00      	cmp	r3, #0
 80016ac:	d005      	beq.n	80016ba <HAL_RCC_OscConfig+0x176>
 80016ae:	687b      	ldr	r3, [r7, #4]
 80016b0:	691b      	ldr	r3, [r3, #16]
 80016b2:	2b01      	cmp	r3, #1
 80016b4:	d001      	beq.n	80016ba <HAL_RCC_OscConfig+0x176>
 80016b6:	2301      	movs	r3, #1
 80016b8:	e1c0      	b.n	8001a3c <HAL_RCC_OscConfig+0x4f8>
 80016ba:	4b3d      	ldr	r3, [pc, #244]	@ (80017b0 <HAL_RCC_OscConfig+0x26c>)
 80016bc:	681b      	ldr	r3, [r3, #0]
 80016be:	f023 02f8 	bic.w	r2, r3, #248	@ 0xf8
 80016c2:	687b      	ldr	r3, [r7, #4]
 80016c4:	695b      	ldr	r3, [r3, #20]
 80016c6:	00db      	lsls	r3, r3, #3
 80016c8:	4939      	ldr	r1, [pc, #228]	@ (80017b0 <HAL_RCC_OscConfig+0x26c>)
 80016ca:	4313      	orrs	r3, r2
 80016cc:	600b      	str	r3, [r1, #0]
 80016ce:	e03a      	b.n	8001746 <HAL_RCC_OscConfig+0x202>
 80016d0:	687b      	ldr	r3, [r7, #4]
 80016d2:	691b      	ldr	r3, [r3, #16]
 80016d4:	2b00      	cmp	r3, #0
 80016d6:	d020      	beq.n	800171a <HAL_RCC_OscConfig+0x1d6>
 80016d8:	4b36      	ldr	r3, [pc, #216]	@ (80017b4 <HAL_RCC_OscConfig+0x270>)
 80016da:	2201      	movs	r2, #1
 80016dc:	601a      	str	r2, [r3, #0]
 80016de:	f7ff fc83 	bl	8000fe8 <HAL_GetTick>
 80016e2:	6138      	str	r0, [r7, #16]
 80016e4:	e008      	b.n	80016f8 <HAL_RCC_OscConfig+0x1b4>
 80016e6:	f7ff fc7f 	bl	8000fe8 <HAL_GetTick>
 80016ea:	4602      	mov	r2, r0
 80016ec:	693b      	ldr	r3, [r7, #16]
 80016ee:	1ad3      	subs	r3, r2, r3
 80016f0:	2b02      	cmp	r3, #2
 80016f2:	d901      	bls.n	80016f8 <HAL_RCC_OscConfig+0x1b4>
 80016f4:	2303      	movs	r3, #3
 80016f6:	e1a1      	b.n	8001a3c <HAL_RCC_OscConfig+0x4f8>
 80016f8:	4b2d      	ldr	r3, [pc, #180]	@ (80017b0 <HAL_RCC_OscConfig+0x26c>)
 80016fa:	681b      	ldr	r3, [r3, #0]
 80016fc:	f003 0302 	and.w	r3, r3, #2
 8001700:	2b00      	cmp	r3, #0
 8001702:	d0f0      	beq.n	80016e6 <HAL_RCC_OscConfig+0x1a2>
 8001704:	4b2a      	ldr	r3, [pc, #168]	@ (80017b0 <HAL_RCC_OscConfig+0x26c>)
 8001706:	681b      	ldr	r3, [r3, #0]
 8001708:	f023 02f8 	bic.w	r2, r3, #248	@ 0xf8
 800170c:	687b      	ldr	r3, [r7, #4]
 800170e:	695b      	ldr	r3, [r3, #20]
 8001710:	00db      	lsls	r3, r3, #3
 8001712:	4927      	ldr	r1, [pc, #156]	@ (80017b0 <HAL_RCC_OscConfig+0x26c>)
 8001714:	4313      	orrs	r3, r2
 8001716:	600b      	str	r3, [r1, #0]
 8001718:	e015      	b.n	8001746 <HAL_RCC_OscConfig+0x202>
 800171a:	4b26      	ldr	r3, [pc, #152]	@ (80017b4 <HAL_RCC_OscConfig+0x270>)
 800171c:	2200      	movs	r2, #0
 800171e:	601a      	str	r2, [r3, #0]
 8001720:	f7ff fc62 	bl	8000fe8 <HAL_GetTick>
 8001724:	6138      	str	r0, [r7, #16]
 8001726:	e008      	b.n	800173a <HAL_RCC_OscConfig+0x1f6>
 8001728:	f7ff fc5e 	bl	8000fe8 <HAL_GetTick>
 800172c:	4602      	mov	r2, r0
 800172e:	693b      	ldr	r3, [r7, #16]
 8001730:	1ad3      	subs	r3, r2, r3
 8001732:	2b02      	cmp	r3, #2
 8001734:	d901      	bls.n	800173a <HAL_RCC_OscConfig+0x1f6>
 8001736:	2303      	movs	r3, #3
 8001738:	e180      	b.n	8001a3c <HAL_RCC_OscConfig+0x4f8>
 800173a:	4b1d      	ldr	r3, [pc, #116]	@ (80017b0 <HAL_RCC_OscConfig+0x26c>)
 800173c:	681b      	ldr	r3, [r3, #0]
 800173e:	f003 0302 	and.w	r3, r3, #2
 8001742:	2b00      	cmp	r3, #0
 8001744:	d1f0      	bne.n	8001728 <HAL_RCC_OscConfig+0x1e4>
 8001746:	687b      	ldr	r3, [r7, #4]
 8001748:	681b      	ldr	r3, [r3, #0]
 800174a:	f003 0308 	and.w	r3, r3, #8
 800174e:	2b00      	cmp	r3, #0
 8001750:	d03a      	beq.n	80017c8 <HAL_RCC_OscConfig+0x284>
 8001752:	687b      	ldr	r3, [r7, #4]
 8001754:	699b      	ldr	r3, [r3, #24]
 8001756:	2b00      	cmp	r3, #0
 8001758:	d019      	beq.n	800178e <HAL_RCC_OscConfig+0x24a>
 800175a:	4b17      	ldr	r3, [pc, #92]	@ (80017b8 <HAL_RCC_OscConfig+0x274>)
 800175c:	2201      	movs	r2, #1
 800175e:	601a      	str	r2, [r3, #0]
 8001760:	f7ff fc42 	bl	8000fe8 <HAL_GetTick>
 8001764:	6138      	str	r0, [r7, #16]
 8001766:	e008      	b.n	800177a <HAL_RCC_OscConfig+0x236>
 8001768:	f7ff fc3e 	bl	8000fe8 <HAL_GetTick>
 800176c:	4602      	mov	r2, r0
 800176e:	693b      	ldr	r3, [r7, #16]
 8001770:	1ad3      	subs	r3, r2, r3
 8001772:	2b02      	cmp	r3, #2
 8001774:	d901      	bls.n	800177a <HAL_RCC_OscConfig+0x236>
 8001776:	2303      	movs	r3, #3
 8001778:	e160      	b.n	8001a3c <HAL_RCC_OscConfig+0x4f8>
 800177a:	4b0d      	ldr	r3, [pc, #52]	@ (80017b0 <HAL_RCC_OscConfig+0x26c>)
 800177c:	6a5b      	ldr	r3, [r3, #36]	@ 0x24
 800177e:	f003 0302 	and.w	r3, r3, #2
 8001782:	2b00      	cmp	r3, #0
 8001784:	d0f0      	beq.n	8001768 <HAL_RCC_OscConfig+0x224>
 8001786:	2001      	movs	r0, #1
 8001788:	f000 fad8 	bl	8001d3c <RCC_Delay>
 800178c:	e01c      	b.n	80017c8 <HAL_RCC_OscConfig+0x284>
 800178e:	4b0a      	ldr	r3, [pc, #40]	@ (80017b8 <HAL_RCC_OscConfig+0x274>)
 8001790:	2200      	movs	r2, #0
 8001792:	601a      	str	r2, [r3, #0]
 8001794:	f7ff fc28 	bl	8000fe8 <HAL_GetTick>
 8001798:	6138      	str	r0, [r7, #16]
 800179a:	e00f      	b.n	80017bc <HAL_RCC_OscConfig+0x278>
 800179c:	f7ff fc24 	bl	8000fe8 <HAL_GetTick>
 80017a0:	4602      	mov	r2, r0
 80017a2:	693b      	ldr	r3, [r7, #16]
 80017a4:	1ad3      	subs	r3, r2, r3
 80017a6:	2b02      	cmp	r3, #2
 80017a8:	d908      	bls.n	80017bc <HAL_RCC_OscConfig+0x278>
 80017aa:	2303      	movs	r3, #3
 80017ac:	e146      	b.n	8001a3c <HAL_RCC_OscConfig+0x4f8>
 80017ae:	bf00      	nop
 80017b0:	40021000 	.word	0x40021000
 80017b4:	42420000 	.word	0x42420000
 80017b8:	42420480 	.word	0x42420480
 80017bc:	4b92      	ldr	r3, [pc, #584]	@ (8001a08 <HAL_RCC_OscConfig+0x4c4>)
 80017be:	6a5b      	ldr	r3, [r3, #36]	@ 0x24
 80017c0:	f003 0302 	and.w	r3, r3, #2
 80017c4:	2b00      	cmp	r3, #0
 80017c6:	d1e9      	bne.n	800179c <HAL_RCC_OscConfig+0x258>
 80017c8:	687b      	ldr	r3, [r7, #4]
 80017ca:	681b      	ldr	r3, [r3, #0]
 80017cc:	f003 0304 	and.w	r3, r3, #4
 80017d0:	2b00      	cmp	r3, #0
 80017d2:	f000 80a6 	beq.w	8001922 <HAL_RCC_OscConfig+0x3de>
 80017d6:	2300      	movs	r3, #0
 80017d8:	75fb      	strb	r3, [r7, #23]
 80017da:	4b8b      	ldr	r3, [pc, #556]	@ (8001a08 <HAL_RCC_OscConfig+0x4c4>)
 80017dc:	69db      	ldr	r3, [r3, #28]
 80017de:	f003 5380 	and.w	r3, r3, #268435456	@ 0x10000000
 80017e2:	2b00      	cmp	r3, #0
 80017e4:	d10d      	bne.n	8001802 <HAL_RCC_OscConfig+0x2be>
 80017e6:	4b88      	ldr	r3, [pc, #544]	@ (8001a08 <HAL_RCC_OscConfig+0x4c4>)
 80017e8:	69db      	ldr	r3, [r3, #28]
 80017ea:	4a87      	ldr	r2, [pc, #540]	@ (8001a08 <HAL_RCC_OscConfig+0x4c4>)
 80017ec:	f043 5380 	orr.w	r3, r3, #268435456	@ 0x10000000
 80017f0:	61d3      	str	r3, [r2, #28]
 80017f2:	4b85      	ldr	r3, [pc, #532]	@ (8001a08 <HAL_RCC_OscConfig+0x4c4>)
 80017f4:	69db      	ldr	r3, [r3, #28]
 80017f6:	f003 5380 	and.w	r3, r3, #268435456	@ 0x10000000
 80017fa:	60bb      	str	r3, [r7, #8]
 80017fc:	68bb      	ldr	r3, [r7, #8]
 80017fe:	2301      	movs	r3, #1
 8001800:	75fb      	strb	r3, [r7, #23]
 8001802:	4b82      	ldr	r3, [pc, #520]	@ (8001a0c <HAL_RCC_OscConfig+0x4c8>)
 8001804:	681b      	ldr	r3, [r3, #0]
 8001806:	f403 7380 	and.w	r3, r3, #256	@ 0x100
 800180a:	2b00      	cmp	r3, #0
 800180c:	d118      	bne.n	8001840 <HAL_RCC_OscConfig+0x2fc>
 800180e:	4b7f      	ldr	r3, [pc, #508]	@ (8001a0c <HAL_RCC_OscConfig+0x4c8>)
 8001810:	681b      	ldr	r3, [r3, #0]
 8001812:	4a7e      	ldr	r2, [pc, #504]	@ (8001a0c <HAL_RCC_OscConfig+0x4c8>)
 8001814:	f443 7380 	orr.w	r3, r3, #256	@ 0x100
 8001818:	6013      	str	r3, [r2, #0]
 800181a:	f7ff fbe5 	bl	8000fe8 <HAL_GetTick>
 800181e:	6138      	str	r0, [r7, #16]
 8001820:	e008      	b.n	8001834 <HAL_RCC_OscConfig+0x2f0>
 8001822:	f7ff fbe1 	bl	8000fe8 <HAL_GetTick>
 8001826:	4602      	mov	r2, r0
 8001828:	693b      	ldr	r3, [r7, #16]
 800182a:	1ad3      	subs	r3, r2, r3
 800182c:	2b64      	cmp	r3, #100	@ 0x64
 800182e:	d901      	bls.n	8001834 <HAL_RCC_OscConfig+0x2f0>
 8001830:	2303      	movs	r3, #3
 8001832:	e103      	b.n	8001a3c <HAL_RCC_OscConfig+0x4f8>
 8001834:	4b75      	ldr	r3, [pc, #468]	@ (8001a0c <HAL_RCC_OscConfig+0x4c8>)
 8001836:	681b      	ldr	r3, [r3, #0]
 8001838:	f403 7380 	and.w	r3, r3, #256	@ 0x100
 800183c:	2b00      	cmp	r3, #0
 800183e:	d0f0      	beq.n	8001822 <HAL_RCC_OscConfig+0x2de>
 8001840:	687b      	ldr	r3, [r7, #4]
 8001842:	68db      	ldr	r3, [r3, #12]
 8001844:	2b01      	cmp	r3, #1
 8001846:	d106      	bne.n	8001856 <HAL_RCC_OscConfig+0x312>
 8001848:	4b6f      	ldr	r3, [pc, #444]	@ (8001a08 <HAL_RCC_OscConfig+0x4c4>)
 800184a:	6a1b      	ldr	r3, [r3, #32]
 800184c:	4a6e      	ldr	r2, [pc, #440]	@ (8001a08 <HAL_RCC_OscConfig+0x4c4>)
 800184e:	f043 0301 	orr.w	r3, r3, #1
 8001852:	6213      	str	r3, [r2, #32]
 8001854:	e02d      	b.n	80018b2 <HAL_RCC_OscConfig+0x36e>
 8001856:	687b      	ldr	r3, [r7, #4]
 8001858:	68db      	ldr	r3, [r3, #12]
 800185a:	2b00      	cmp	r3, #0
 800185c:	d10c      	bne.n	8001878 <HAL_RCC_OscConfig+0x334>
 800185e:	4b6a      	ldr	r3, [pc, #424]	@ (8001a08 <HAL_RCC_OscConfig+0x4c4>)
 8001860:	6a1b      	ldr	r3, [r3, #32]
 8001862:	4a69      	ldr	r2, [pc, #420]	@ (8001a08 <HAL_RCC_OscConfig+0x4c4>)
 8001864:	f023 0301 	bic.w	r3, r3, #1
 8001868:	6213      	str	r3, [r2, #32]
 800186a:	4b67      	ldr	r3, [pc, #412]	@ (8001a08 <HAL_RCC_OscConfig+0x4c4>)
 800186c:	6a1b      	ldr	r3, [r3, #32]
 800186e:	4a66      	ldr	r2, [pc, #408]	@ (8001a08 <HAL_RCC_OscConfig+0x4c4>)
 8001870:	f023 0304 	bic.w	r3, r3, #4
 8001874:	6213      	str	r3, [r2, #32]
 8001876:	e01c      	b.n	80018b2 <HAL_RCC_OscConfig+0x36e>
 8001878:	687b      	ldr	r3, [r7, #4]
 800187a:	68db      	ldr	r3, [r3, #12]
 800187c:	2b05      	cmp	r3, #5
 800187e:	d10c      	bne.n	800189a <HAL_RCC_OscConfig+0x356>
 8001880:	4b61      	ldr	r3, [pc, #388]	@ (8001a08 <HAL_RCC_OscConfig+0x4c4>)
 8001882:	6a1b      	ldr	r3, [r3, #32]
 8001884:	4a60      	ldr	r2, [pc, #384]	@ (8001a08 <HAL_RCC_OscConfig+0x4c4>)
 8001886:	f043 0304 	orr.w	r3, r3, #4
 800188a:	6213      	str	r3, [r2, #32]
 800188c:	4b5e      	ldr	r3, [pc, #376]	@ (8001a08 <HAL_RCC_OscConfig+0x4c4>)
 800188e:	6a1b      	ldr	r3, [r3, #32]
 8001890:	4a5d      	ldr	r2, [pc, #372]	@ (8001a08 <HAL_RCC_OscConfig+0x4c4>)
 8001892:	f043 0301 	orr.w	r3, r3, #1
 8001896:	6213      	str	r3, [r2, #32]
 8001898:	e00b      	b.n	80018b2 <HAL_RCC_OscConfig+0x36e>
 800189a:	4b5b      	ldr	r3, [pc, #364]	@ (8001a08 <HAL_RCC_OscConfig+0x4c4>)
 800189c:	6a1b      	ldr	r3, [r3, #32]
 800189e:	4a5a      	ldr	r2, [pc, #360]	@ (8001a08 <HAL_RCC_OscConfig+0x4c4>)
 80018a0:	f023 0301 	bic.w	r3, r3, #1
 80018a4:	6213      	str	r3, [r2, #32]
 80018a6:	4b58      	ldr	r3, [pc, #352]	@ (8001a08 <HAL_RCC_OscConfig+0x4c4>)
 80018a8:	6a1b      	ldr	r3, [r3, #32]
 80018aa:	4a57      	ldr	r2, [pc, #348]	@ (8001a08 <HAL_RCC_OscConfig+0x4c4>)
 80018ac:	f023 0304 	bic.w	r3, r3, #4
 80018b0:	6213      	str	r3, [r2, #32]
 80018b2:	687b      	ldr	r3, [r7, #4]
 80018b4:	68db      	ldr	r3, [r3, #12]
 80018b6:	2b00      	cmp	r3, #0
 80018b8:	d015      	beq.n	80018e6 <HAL_RCC_OscConfig+0x3a2>
 80018ba:	f7ff fb95 	bl	8000fe8 <HAL_GetTick>
 80018be:	6138      	str	r0, [r7, #16]
 80018c0:	e00a      	b.n	80018d8 <HAL_RCC_OscConfig+0x394>
 80018c2:	f7ff fb91 	bl	8000fe8 <HAL_GetTick>
 80018c6:	4602      	mov	r2, r0
 80018c8:	693b      	ldr	r3, [r7, #16]
 80018ca:	1ad3      	subs	r3, r2, r3
 80018cc:	f241 3288 	movw	r2, #5000	@ 0x1388
 80018d0:	4293      	cmp	r3, r2
 80018d2:	d901      	bls.n	80018d8 <HAL_RCC_OscConfig+0x394>
 80018d4:	2303      	movs	r3, #3
 80018d6:	e0b1      	b.n	8001a3c <HAL_RCC_OscConfig+0x4f8>
 80018d8:	4b4b      	ldr	r3, [pc, #300]	@ (8001a08 <HAL_RCC_OscConfig+0x4c4>)
 80018da:	6a1b      	ldr	r3, [r3, #32]
 80018dc:	f003 0302 	and.w	r3, r3, #2
 80018e0:	2b00      	cmp	r3, #0
 80018e2:	d0ee      	beq.n	80018c2 <HAL_RCC_OscConfig+0x37e>
 80018e4:	e014      	b.n	8001910 <HAL_RCC_OscConfig+0x3cc>
 80018e6:	f7ff fb7f 	bl	8000fe8 <HAL_GetTick>
 80018ea:	6138      	str	r0, [r7, #16]
 80018ec:	e00a      	b.n	8001904 <HAL_RCC_OscConfig+0x3c0>
 80018ee:	f7ff fb7b 	bl	8000fe8 <HAL_GetTick>
 80018f2:	4602      	mov	r2, r0
 80018f4:	693b      	ldr	r3, [r7, #16]
 80018f6:	1ad3      	subs	r3, r2, r3
 80018f8:	f241 3288 	movw	r2, #5000	@ 0x1388
 80018fc:	4293      	cmp	r3, r2
 80018fe:	d901      	bls.n	8001904 <HAL_RCC_OscConfig+0x3c0>
 8001900:	2303      	movs	r3, #3
 8001902:	e09b      	b.n	8001a3c <HAL_RCC_OscConfig+0x4f8>
 8001904:	4b40      	ldr	r3, [pc, #256]	@ (8001a08 <HAL_RCC_OscConfig+0x4c4>)
 8001906:	6a1b      	ldr	r3, [r3, #32]
 8001908:	f003 0302 	and.w	r3, r3, #2
 800190c:	2b00      	cmp	r3, #0
 800190e:	d1ee      	bne.n	80018ee <HAL_RCC_OscConfig+0x3aa>
 8001910:	7dfb      	ldrb	r3, [r7, #23]
 8001912:	2b01      	cmp	r3, #1
 8001914:	d105      	bne.n	8001922 <HAL_RCC_OscConfig+0x3de>
 8001916:	4b3c      	ldr	r3, [pc, #240]	@ (8001a08 <HAL_RCC_OscConfig+0x4c4>)
 8001918:	69db      	ldr	r3, [r3, #28]
 800191a:	4a3b      	ldr	r2, [pc, #236]	@ (8001a08 <HAL_RCC_OscConfig+0x4c4>)
 800191c:	f023 5380 	bic.w	r3, r3, #268435456	@ 0x10000000
 8001920:	61d3      	str	r3, [r2, #28]
 8001922:	687b      	ldr	r3, [r7, #4]
 8001924:	69db      	ldr	r3, [r3, #28]
 8001926:	2b00      	cmp	r3, #0
 8001928:	f000 8087 	beq.w	8001a3a <HAL_RCC_OscConfig+0x4f6>
 800192c:	4b36      	ldr	r3, [pc, #216]	@ (8001a08 <HAL_RCC_OscConfig+0x4c4>)
 800192e:	685b      	ldr	r3, [r3, #4]
 8001930:	f003 030c 	and.w	r3, r3, #12
 8001934:	2b08      	cmp	r3, #8
 8001936:	d061      	beq.n	80019fc <HAL_RCC_OscConfig+0x4b8>
 8001938:	687b      	ldr	r3, [r7, #4]
 800193a:	69db      	ldr	r3, [r3, #28]
 800193c:	2b02      	cmp	r3, #2
 800193e:	d146      	bne.n	80019ce <HAL_RCC_OscConfig+0x48a>
 8001940:	4b33      	ldr	r3, [pc, #204]	@ (8001a10 <HAL_RCC_OscConfig+0x4cc>)
 8001942:	2200      	movs	r2, #0
 8001944:	601a      	str	r2, [r3, #0]
 8001946:	f7ff fb4f 	bl	8000fe8 <HAL_GetTick>
 800194a:	6138      	str	r0, [r7, #16]
 800194c:	e008      	b.n	8001960 <HAL_RCC_OscConfig+0x41c>
 800194e:	f7ff fb4b 	bl	8000fe8 <HAL_GetTick>
 8001952:	4602      	mov	r2, r0
 8001954:	693b      	ldr	r3, [r7, #16]
 8001956:	1ad3      	subs	r3, r2, r3
 8001958:	2b02      	cmp	r3, #2
 800195a:	d901      	bls.n	8001960 <HAL_RCC_OscConfig+0x41c>
 800195c:	2303      	movs	r3, #3
 800195e:	e06d      	b.n	8001a3c <HAL_RCC_OscConfig+0x4f8>
 8001960:	4b29      	ldr	r3, [pc, #164]	@ (8001a08 <HAL_RCC_OscConfig+0x4c4>)
 8001962:	681b      	ldr	r3, [r3, #0]
 8001964:	f003 7300 	and.w	r3, r3, #33554432	@ 0x2000000
 8001968:	2b00      	cmp	r3, #0
 800196a:	d1f0      	bne.n	800194e <HAL_RCC_OscConfig+0x40a>
 800196c:	687b      	ldr	r3, [r7, #4]
 800196e:	6a1b      	ldr	r3, [r3, #32]
 8001970:	f5b3 3f80 	cmp.w	r3, #65536	@ 0x10000
 8001974:	d108      	bne.n	8001988 <HAL_RCC_OscConfig+0x444>
 8001976:	4b24      	ldr	r3, [pc, #144]	@ (8001a08 <HAL_RCC_OscConfig+0x4c4>)
 8001978:	685b      	ldr	r3, [r3, #4]
 800197a:	f423 3200 	bic.w	r2, r3, #131072	@ 0x20000
 800197e:	687b      	ldr	r3, [r7, #4]
 8001980:	689b      	ldr	r3, [r3, #8]
 8001982:	4921      	ldr	r1, [pc, #132]	@ (8001a08 <HAL_RCC_OscConfig+0x4c4>)
 8001984:	4313      	orrs	r3, r2
 8001986:	604b      	str	r3, [r1, #4]
 8001988:	4b1f      	ldr	r3, [pc, #124]	@ (8001a08 <HAL_RCC_OscConfig+0x4c4>)
 800198a:	685b      	ldr	r3, [r3, #4]
 800198c:	f423 1274 	bic.w	r2, r3, #3997696	@ 0x3d0000
 8001990:	687b      	ldr	r3, [r7, #4]
 8001992:	6a19      	ldr	r1, [r3, #32]
 8001994:	687b      	ldr	r3, [r7, #4]
 8001996:	6a5b      	ldr	r3, [r3, #36]	@ 0x24
 8001998:	430b      	orrs	r3, r1
 800199a:	491b      	ldr	r1, [pc, #108]	@ (8001a08 <HAL_RCC_OscConfig+0x4c4>)
 800199c:	4313      	orrs	r3, r2
 800199e:	604b      	str	r3, [r1, #4]
 80019a0:	4b1b      	ldr	r3, [pc, #108]	@ (8001a10 <HAL_RCC_OscConfig+0x4cc>)
 80019a2:	2201      	movs	r2, #1
 80019a4:	601a      	str	r2, [r3, #0]
 80019a6:	f7ff fb1f 	bl	8000fe8 <HAL_GetTick>
 80019aa:	6138      	str	r0, [r7, #16]
 80019ac:	e008      	b.n	80019c0 <HAL_RCC_OscConfig+0x47c>
 80019ae:	f7ff fb1b 	bl	8000fe8 <HAL_GetTick>
 80019b2:	4602      	mov	r2, r0
 80019b4:	693b      	ldr	r3, [r7, #16]
 80019b6:	1ad3      	subs	r3, r2, r3
 80019b8:	2b02      	cmp	r3, #2
 80019ba:	d901      	bls.n	80019c0 <HAL_RCC_OscConfig+0x47c>
 80019bc:	2303      	movs	r3, #3
 80019be:	e03d      	b.n	8001a3c <HAL_RCC_OscConfig+0x4f8>
 80019c0:	4b11      	ldr	r3, [pc, #68]	@ (8001a08 <HAL_RCC_OscConfig+0x4c4>)
 80019c2:	681b      	ldr	r3, [r3, #0]
 80019c4:	f003 7300 	and.w	r3, r3, #33554432	@ 0x2000000
 80019c8:	2b00      	cmp	r3, #0
 80019ca:	d0f0      	beq.n	80019ae <HAL_RCC_OscConfig+0x46a>
 80019cc:	e035      	b.n	8001a3a <HAL_RCC_OscConfig+0x4f6>
 80019ce:	4b10      	ldr	r3, [pc, #64]	@ (8001a10 <HAL_RCC_OscConfig+0x4cc>)
 80019d0:	2200      	movs	r2, #0
 80019d2:	601a      	str	r2, [r3, #0]
 80019d4:	f7ff fb08 	bl	8000fe8 <HAL_GetTick>
 80019d8:	6138      	str	r0, [r7, #16]
 80019da:	e008      	b.n	80019ee <HAL_RCC_OscConfig+0x4aa>
 80019dc:	f7ff fb04 	bl	8000fe8 <HAL_GetTick>
 80019e0:	4602      	mov	r2, r0
 80019e2:	693b      	ldr	r3, [r7, #16]
 80019e4:	1ad3      	subs	r3, r2, r3
 80019e6:	2b02      	cmp	r3, #2
 80019e8:	d901      	bls.n	80019ee <HAL_RCC_OscConfig+0x4aa>
 80019ea:	2303      	movs	r3, #3
 80019ec:	e026      	b.n	8001a3c <HAL_RCC_OscConfig+0x4f8>
 80019ee:	4b06      	ldr	r3, [pc, #24]	@ (8001a08 <HAL_RCC_OscConfig+0x4c4>)
 80019f0:	681b      	ldr	r3, [r3, #0]
 80019f2:	f003 7300 	and.w	r3, r3, #33554432	@ 0x2000000
 80019f6:	2b00      	cmp	r3, #0
 80019f8:	d1f0      	bne.n	80019dc <HAL_RCC_OscConfig+0x498>
 80019fa:	e01e      	b.n	8001a3a <HAL_RCC_OscConfig+0x4f6>
 80019fc:	687b      	ldr	r3, [r7, #4]
 80019fe:	69db      	ldr	r3, [r3, #28]
 8001a00:	2b01      	cmp	r3, #1
 8001a02:	d107      	bne.n	8001a14 <HAL_RCC_OscConfig+0x4d0>
 8001a04:	2301      	movs	r3, #1
 8001a06:	e019      	b.n	8001a3c <HAL_RCC_OscConfig+0x4f8>
 8001a08:	40021000 	.word	0x40021000
 8001a0c:	40007000 	.word	0x40007000
 8001a10:	42420060 	.word	0x42420060
 8001a14:	4b0b      	ldr	r3, [pc, #44]	@ (8001a44 <HAL_RCC_OscConfig+0x500>)
 8001a16:	685b      	ldr	r3, [r3, #4]
 8001a18:	60fb      	str	r3, [r7, #12]
 8001a1a:	68fb      	ldr	r3, [r7, #12]
 8001a1c:	f403 3280 	and.w	r2, r3, #65536	@ 0x10000
 8001a20:	687b      	ldr	r3, [r7, #4]
 8001a22:	6a1b      	ldr	r3, [r3, #32]
 8001a24:	429a      	cmp	r2, r3
 8001a26:	d106      	bne.n	8001a36 <HAL_RCC_OscConfig+0x4f2>
 8001a28:	68fb      	ldr	r3, [r7, #12]
 8001a2a:	f403 1270 	and.w	r2, r3, #3932160	@ 0x3c0000
 8001a2e:	687b      	ldr	r3, [r7, #4]
 8001a30:	6a5b      	ldr	r3, [r3, #36]	@ 0x24
 8001a32:	429a      	cmp	r2, r3
 8001a34:	d001      	beq.n	8001a3a <HAL_RCC_OscConfig+0x4f6>
 8001a36:	2301      	movs	r3, #1
 8001a38:	e000      	b.n	8001a3c <HAL_RCC_OscConfig+0x4f8>
 8001a3a:	2300      	movs	r3, #0
 8001a3c:	4618      	mov	r0, r3
 8001a3e:	3718      	adds	r7, #24
 8001a40:	46bd      	mov	sp, r7
 8001a42:	bd80      	pop	{r7, pc}
 8001a44:	40021000 	.word	0x40021000

08001a48 <HAL_RCC_ClockConfig>:
 8001a48:	b580      	push	{r7, lr}
 8001a4a:	b084      	sub	sp, #16
 8001a4c:	af00      	add	r7, sp, #0
 8001a4e:	6078      	str	r0, [r7, #4]
 8001a50:	6039      	str	r1, [r7, #0]
 8001a52:	687b      	ldr	r3, [r7, #4]
 8001a54:	2b00      	cmp	r3, #0
 8001a56:	d101      	bne.n	8001a5c <HAL_RCC_ClockConfig+0x14>
 8001a58:	2301      	movs	r3, #1
 8001a5a:	e0d0      	b.n	8001bfe <HAL_RCC_ClockConfig+0x1b6>
 8001a5c:	4b6a      	ldr	r3, [pc, #424]	@ (8001c08 <HAL_RCC_ClockConfig+0x1c0>)
 8001a5e:	681b      	ldr	r3, [r3, #0]
 8001a60:	f003 0307 	and.w	r3, r3, #7
 8001a64:	683a      	ldr	r2, [r7, #0]
 8001a66:	429a      	cmp	r2, r3
 8001a68:	d910      	bls.n	8001a8c <HAL_RCC_ClockConfig+0x44>
 8001a6a:	4b67      	ldr	r3, [pc, #412]	@ (8001c08 <HAL_RCC_ClockConfig+0x1c0>)
 8001a6c:	681b      	ldr	r3, [r3, #0]
 8001a6e:	f023 0207 	bic.w	r2, r3, #7
 8001a72:	4965      	ldr	r1, [pc, #404]	@ (8001c08 <HAL_RCC_ClockConfig+0x1c0>)
 8001a74:	683b      	ldr	r3, [r7, #0]
 8001a76:	4313      	orrs	r3, r2
 8001a78:	600b      	str	r3, [r1, #0]
 8001a7a:	4b63      	ldr	r3, [pc, #396]	@ (8001c08 <HAL_RCC_ClockConfig+0x1c0>)
 8001a7c:	681b      	ldr	r3, [r3, #0]
 8001a7e:	f003 0307 	and.w	r3, r3, #7
 8001a82:	683a      	ldr	r2, [r7, #0]
 8001a84:	429a      	cmp	r2, r3
 8001a86:	d001      	beq.n	8001a8c <HAL_RCC_ClockConfig+0x44>
 8001a88:	2301      	movs	r3, #1
 8001a8a:	e0b8      	b.n	8001bfe <HAL_RCC_ClockConfig+0x1b6>
 8001a8c:	687b      	ldr	r3, [r7, #4]
 8001a8e:	681b      	ldr	r3, [r3, #0]
 8001a90:	f003 0302 	and.w	r3, r3, #2
 8001a94:	2b00      	cmp	r3, #0
 8001a96:	d020      	beq.n	8001ada <HAL_RCC_ClockConfig+0x92>
 8001a98:	687b      	ldr	r3, [r7, #4]
 8001a9a:	681b      	ldr	r3, [r3, #0]
 8001a9c:	f003 0304 	and.w	r3, r3, #4
 8001aa0:	2b00      	cmp	r3, #0
 8001aa2:	d005      	beq.n	8001ab0 <HAL_RCC_ClockConfig+0x68>
 8001aa4:	4b59      	ldr	r3, [pc, #356]	@ (8001c0c <HAL_RCC_ClockConfig+0x1c4>)
 8001aa6:	685b      	ldr	r3, [r3, #4]
 8001aa8:	4a58      	ldr	r2, [pc, #352]	@ (8001c0c <HAL_RCC_ClockConfig+0x1c4>)
 8001aaa:	f443 63e0 	orr.w	r3, r3, #1792	@ 0x700
 8001aae:	6053      	str	r3, [r2, #4]
 8001ab0:	687b      	ldr	r3, [r7, #4]
 8001ab2:	681b      	ldr	r3, [r3, #0]
 8001ab4:	f003 0308 	and.w	r3, r3, #8
 8001ab8:	2b00      	cmp	r3, #0
 8001aba:	d005      	beq.n	8001ac8 <HAL_RCC_ClockConfig+0x80>
 8001abc:	4b53      	ldr	r3, [pc, #332]	@ (8001c0c <HAL_RCC_ClockConfig+0x1c4>)
 8001abe:	685b      	ldr	r3, [r3, #4]
 8001ac0:	4a52      	ldr	r2, [pc, #328]	@ (8001c0c <HAL_RCC_ClockConfig+0x1c4>)
 8001ac2:	f443 5360 	orr.w	r3, r3, #14336	@ 0x3800
 8001ac6:	6053      	str	r3, [r2, #4]
 8001ac8:	4b50      	ldr	r3, [pc, #320]	@ (8001c0c <HAL_RCC_ClockConfig+0x1c4>)
 8001aca:	685b      	ldr	r3, [r3, #4]
 8001acc:	f023 02f0 	bic.w	r2, r3, #240	@ 0xf0
 8001ad0:	687b      	ldr	r3, [r7, #4]
 8001ad2:	689b      	ldr	r3, [r3, #8]
 8001ad4:	494d      	ldr	r1, [pc, #308]	@ (8001c0c <HAL_RCC_ClockConfig+0x1c4>)
 8001ad6:	4313      	orrs	r3, r2
 8001ad8:	604b      	str	r3, [r1, #4]
 8001ada:	687b      	ldr	r3, [r7, #4]
 8001adc:	681b      	ldr	r3, [r3, #0]
 8001ade:	f003 0301 	and.w	r3, r3, #1
 8001ae2:	2b00      	cmp	r3, #0
 8001ae4:	d040      	beq.n	8001b68 <HAL_RCC_ClockConfig+0x120>
 8001ae6:	687b      	ldr	r3, [r7, #4]
 8001ae8:	685b      	ldr	r3, [r3, #4]
 8001aea:	2b01      	cmp	r3, #1
 8001aec:	d107      	bne.n	8001afe <HAL_RCC_ClockConfig+0xb6>
 8001aee:	4b47      	ldr	r3, [pc, #284]	@ (8001c0c <HAL_RCC_ClockConfig+0x1c4>)
 8001af0:	681b      	ldr	r3, [r3, #0]
 8001af2:	f403 3300 	and.w	r3, r3, #131072	@ 0x20000
 8001af6:	2b00      	cmp	r3, #0
 8001af8:	d115      	bne.n	8001b26 <HAL_RCC_ClockConfig+0xde>
 8001afa:	2301      	movs	r3, #1
 8001afc:	e07f      	b.n	8001bfe <HAL_RCC_ClockConfig+0x1b6>
 8001afe:	687b      	ldr	r3, [r7, #4]
 8001b00:	685b      	ldr	r3, [r3, #4]
 8001b02:	2b02      	cmp	r3, #2
 8001b04:	d107      	bne.n	8001b16 <HAL_RCC_ClockConfig+0xce>
 8001b06:	4b41      	ldr	r3, [pc, #260]	@ (8001c0c <HAL_RCC_ClockConfig+0x1c4>)
 8001b08:	681b      	ldr	r3, [r3, #0]
 8001b0a:	f003 7300 	and.w	r3, r3, #33554432	@ 0x2000000
 8001b0e:	2b00      	cmp	r3, #0
 8001b10:	d109      	bne.n	8001b26 <HAL_RCC_ClockConfig+0xde>
 8001b12:	2301      	movs	r3, #1
 8001b14:	e073      	b.n	8001bfe <HAL_RCC_ClockConfig+0x1b6>
 8001b16:	4b3d      	ldr	r3, [pc, #244]	@ (8001c0c <HAL_RCC_ClockConfig+0x1c4>)
 8001b18:	681b      	ldr	r3, [r3, #0]
 8001b1a:	f003 0302 	and.w	r3, r3, #2
 8001b1e:	2b00      	cmp	r3, #0
 8001b20:	d101      	bne.n	8001b26 <HAL_RCC_ClockConfig+0xde>
 8001b22:	2301      	movs	r3, #1
 8001b24:	e06b      	b.n	8001bfe <HAL_RCC_ClockConfig+0x1b6>
 8001b26:	4b39      	ldr	r3, [pc, #228]	@ (8001c0c <HAL_RCC_ClockConfig+0x1c4>)
 8001b28:	685b      	ldr	r3, [r3, #4]
 8001b2a:	f023 0203 	bic.w	r2, r3, #3
 8001b2e:	687b      	ldr	r3, [r7, #4]
 8001b30:	685b      	ldr	r3, [r3, #4]
 8001b32:	4936      	ldr	r1, [pc, #216]	@ (8001c0c <HAL_RCC_ClockConfig+0x1c4>)
 8001b34:	4313      	orrs	r3, r2
 8001b36:	604b      	str	r3, [r1, #4]
 8001b38:	f7ff fa56 	bl	8000fe8 <HAL_GetTick>
 8001b3c:	60f8      	str	r0, [r7, #12]
 8001b3e:	e00a      	b.n	8001b56 <HAL_RCC_ClockConfig+0x10e>
 8001b40:	f7ff fa52 	bl	8000fe8 <HAL_GetTick>
 8001b44:	4602      	mov	r2, r0
 8001b46:	68fb      	ldr	r3, [r7, #12]
 8001b48:	1ad3      	subs	r3, r2, r3
 8001b4a:	f241 3288 	movw	r2, #5000	@ 0x1388
 8001b4e:	4293      	cmp	r3, r2
 8001b50:	d901      	bls.n	8001b56 <HAL_RCC_ClockConfig+0x10e>
 8001b52:	2303      	movs	r3, #3
 8001b54:	e053      	b.n	8001bfe <HAL_RCC_ClockConfig+0x1b6>
 8001b56:	4b2d      	ldr	r3, [pc, #180]	@ (8001c0c <HAL_RCC_ClockConfig+0x1c4>)
 8001b58:	685b      	ldr	r3, [r3, #4]
 8001b5a:	f003 020c 	and.w	r2, r3, #12
 8001b5e:	687b      	ldr	r3, [r7, #4]
 8001b60:	685b      	ldr	r3, [r3, #4]
 8001b62:	009b      	lsls	r3, r3, #2
 8001b64:	429a      	cmp	r2, r3
 8001b66:	d1eb      	bne.n	8001b40 <HAL_RCC_ClockConfig+0xf8>
 8001b68:	4b27      	ldr	r3, [pc, #156]	@ (8001c08 <HAL_RCC_ClockConfig+0x1c0>)
 8001b6a:	681b      	ldr	r3, [r3, #0]
 8001b6c:	f003 0307 	and.w	r3, r3, #7
 8001b70:	683a      	ldr	r2, [r7, #0]
 8001b72:	429a      	cmp	r2, r3
 8001b74:	d210      	bcs.n	8001b98 <HAL_RCC_ClockConfig+0x150>
 8001b76:	4b24      	ldr	r3, [pc, #144]	@ (8001c08 <HAL_RCC_ClockConfig+0x1c0>)
 8001b78:	681b      	ldr	r3, [r3, #0]
 8001b7a:	f023 0207 	bic.w	r2, r3, #7
 8001b7e:	4922      	ldr	r1, [pc, #136]	@ (8001c08 <HAL_RCC_ClockConfig+0x1c0>)
 8001b80:	683b      	ldr	r3, [r7, #0]
 8001b82:	4313      	orrs	r3, r2
 8001b84:	600b      	str	r3, [r1, #0]
 8001b86:	4b20      	ldr	r3, [pc, #128]	@ (8001c08 <HAL_RCC_ClockConfig+0x1c0>)
 8001b88:	681b      	ldr	r3, [r3, #0]
 8001b8a:	f003 0307 	and.w	r3, r3, #7
 8001b8e:	683a      	ldr	r2, [r7, #0]
 8001b90:	429a      	cmp	r2, r3
 8001b92:	d001      	beq.n	8001b98 <HAL_RCC_ClockConfig+0x150>
 8001b94:	2301      	movs	r3, #1
 8001b96:	e032      	b.n	8001bfe <HAL_RCC_ClockConfig+0x1b6>
 8001b98:	687b      	ldr	r3, [r7, #4]
 8001b9a:	681b      	ldr	r3, [r3, #0]
 8001b9c:	f003 0304 	and.w	r3, r3, #4
 8001ba0:	2b00      	cmp	r3, #0
 8001ba2:	d008      	beq.n	8001bb6 <HAL_RCC_ClockConfig+0x16e>
 8001ba4:	4b19      	ldr	r3, [pc, #100]	@ (8001c0c <HAL_RCC_ClockConfig+0x1c4>)
 8001ba6:	685b      	ldr	r3, [r3, #4]
 8001ba8:	f423 62e0 	bic.w	r2, r3, #1792	@ 0x700
 8001bac:	687b      	ldr	r3, [r7, #4]
 8001bae:	68db      	ldr	r3, [r3, #12]
 8001bb0:	4916      	ldr	r1, [pc, #88]	@ (8001c0c <HAL_RCC_ClockConfig+0x1c4>)
 8001bb2:	4313      	orrs	r3, r2
 8001bb4:	604b      	str	r3, [r1, #4]
 8001bb6:	687b      	ldr	r3, [r7, #4]
 8001bb8:	681b      	ldr	r3, [r3, #0]
 8001bba:	f003 0308 	and.w	r3, r3, #8
 8001bbe:	2b00      	cmp	r3, #0
 8001bc0:	d009      	beq.n	8001bd6 <HAL_RCC_ClockConfig+0x18e>
 8001bc2:	4b12      	ldr	r3, [pc, #72]	@ (8001c0c <HAL_RCC_ClockConfig+0x1c4>)
 8001bc4:	685b      	ldr	r3, [r3, #4]
 8001bc6:	f423 5260 	bic.w	r2, r3, #14336	@ 0x3800
 8001bca:	687b      	ldr	r3, [r7, #4]
 8001bcc:	691b      	ldr	r3, [r3, #16]
 8001bce:	00db      	lsls	r3, r3, #3
 8001bd0:	490e      	ldr	r1, [pc, #56]	@ (8001c0c <HAL_RCC_ClockConfig+0x1c4>)
 8001bd2:	4313      	orrs	r3, r2
 8001bd4:	604b      	str	r3, [r1, #4]
 8001bd6:	f000 f821 	bl	8001c1c <HAL_RCC_GetSysClockFreq>
 8001bda:	4602      	mov	r2, r0
 8001bdc:	4b0b      	ldr	r3, [pc, #44]	@ (8001c0c <HAL_RCC_ClockConfig+0x1c4>)
 8001bde:	685b      	ldr	r3, [r3, #4]
 8001be0:	091b      	lsrs	r3, r3, #4
 8001be2:	f003 030f 	and.w	r3, r3, #15
 8001be6:	490a      	ldr	r1, [pc, #40]	@ (8001c10 <HAL_RCC_ClockConfig+0x1c8>)
 8001be8:	5ccb      	ldrb	r3, [r1, r3]
 8001bea:	fa22 f303 	lsr.w	r3, r2, r3
 8001bee:	4a09      	ldr	r2, [pc, #36]	@ (8001c14 <HAL_RCC_ClockConfig+0x1cc>)
 8001bf0:	6013      	str	r3, [r2, #0]
 8001bf2:	4b09      	ldr	r3, [pc, #36]	@ (8001c18 <HAL_RCC_ClockConfig+0x1d0>)
 8001bf4:	681b      	ldr	r3, [r3, #0]
 8001bf6:	4618      	mov	r0, r3
 8001bf8:	f7ff f9b4 	bl	8000f64 <HAL_InitTick>
 8001bfc:	2300      	movs	r3, #0
 8001bfe:	4618      	mov	r0, r3
 8001c00:	3710      	adds	r7, #16
 8001c02:	46bd      	mov	sp, r7
 8001c04:	bd80      	pop	{r7, pc}
 8001c06:	bf00      	nop
 8001c08:	40022000 	.word	0x40022000
 8001c0c:	40021000 	.word	0x40021000
 8001c10:	08002ee8 	.word	0x08002ee8
 8001c14:	20000004 	.word	0x20000004
 8001c18:	20000008 	.word	0x20000008

08001c1c <HAL_RCC_GetSysClockFreq>:
 8001c1c:	b490      	push	{r4, r7}
 8001c1e:	b08a      	sub	sp, #40	@ 0x28
 8001c20:	af00      	add	r7, sp, #0
 8001c22:	4b29      	ldr	r3, [pc, #164]	@ (8001cc8 <HAL_RCC_GetSysClockFreq+0xac>)
 8001c24:	1d3c      	adds	r4, r7, #4
 8001c26:	cb0f      	ldmia	r3, {r0, r1, r2, r3}
 8001c28:	e884 000f 	stmia.w	r4, {r0, r1, r2, r3}
 8001c2c:	f240 2301 	movw	r3, #513	@ 0x201
 8001c30:	803b      	strh	r3, [r7, #0]
 8001c32:	2300      	movs	r3, #0
 8001c34:	61fb      	str	r3, [r7, #28]
 8001c36:	2300      	movs	r3, #0
 8001c38:	61bb      	str	r3, [r7, #24]
 8001c3a:	2300      	movs	r3, #0
 8001c3c:	627b      	str	r3, [r7, #36]	@ 0x24
 8001c3e:	2300      	movs	r3, #0
 8001c40:	617b      	str	r3, [r7, #20]
 8001c42:	2300      	movs	r3, #0
 8001c44:	623b      	str	r3, [r7, #32]
 8001c46:	4b21      	ldr	r3, [pc, #132]	@ (8001ccc <HAL_RCC_GetSysClockFreq+0xb0>)
 8001c48:	685b      	ldr	r3, [r3, #4]
 8001c4a:	61fb      	str	r3, [r7, #28]
 8001c4c:	69fb      	ldr	r3, [r7, #28]
 8001c4e:	f003 030c 	and.w	r3, r3, #12
 8001c52:	2b04      	cmp	r3, #4
 8001c54:	d002      	beq.n	8001c5c <HAL_RCC_GetSysClockFreq+0x40>
 8001c56:	2b08      	cmp	r3, #8
 8001c58:	d003      	beq.n	8001c62 <HAL_RCC_GetSysClockFreq+0x46>
 8001c5a:	e02b      	b.n	8001cb4 <HAL_RCC_GetSysClockFreq+0x98>
 8001c5c:	4b1c      	ldr	r3, [pc, #112]	@ (8001cd0 <HAL_RCC_GetSysClockFreq+0xb4>)
 8001c5e:	623b      	str	r3, [r7, #32]
 8001c60:	e02b      	b.n	8001cba <HAL_RCC_GetSysClockFreq+0x9e>
 8001c62:	69fb      	ldr	r3, [r7, #28]
 8001c64:	0c9b      	lsrs	r3, r3, #18
 8001c66:	f003 030f 	and.w	r3, r3, #15
 8001c6a:	3328      	adds	r3, #40	@ 0x28
 8001c6c:	443b      	add	r3, r7
 8001c6e:	f813 3c24 	ldrb.w	r3, [r3, #-36]
 8001c72:	617b      	str	r3, [r7, #20]
 8001c74:	69fb      	ldr	r3, [r7, #28]
 8001c76:	f403 3380 	and.w	r3, r3, #65536	@ 0x10000
 8001c7a:	2b00      	cmp	r3, #0
 8001c7c:	d012      	beq.n	8001ca4 <HAL_RCC_GetSysClockFreq+0x88>
 8001c7e:	4b13      	ldr	r3, [pc, #76]	@ (8001ccc <HAL_RCC_GetSysClockFreq+0xb0>)
 8001c80:	685b      	ldr	r3, [r3, #4]
 8001c82:	0c5b      	lsrs	r3, r3, #17
 8001c84:	f003 0301 	and.w	r3, r3, #1
 8001c88:	3328      	adds	r3, #40	@ 0x28
 8001c8a:	443b      	add	r3, r7
 8001c8c:	f813 3c28 	ldrb.w	r3, [r3, #-40]
 8001c90:	61bb      	str	r3, [r7, #24]
 8001c92:	697b      	ldr	r3, [r7, #20]
 8001c94:	4a0e      	ldr	r2, [pc, #56]	@ (8001cd0 <HAL_RCC_GetSysClockFreq+0xb4>)
 8001c96:	fb03 f202 	mul.w	r2, r3, r2
 8001c9a:	69bb      	ldr	r3, [r7, #24]
 8001c9c:	fbb2 f3f3 	udiv	r3, r2, r3
 8001ca0:	627b      	str	r3, [r7, #36]	@ 0x24
 8001ca2:	e004      	b.n	8001cae <HAL_RCC_GetSysClockFreq+0x92>
 8001ca4:	697b      	ldr	r3, [r7, #20]
 8001ca6:	4a0b      	ldr	r2, [pc, #44]	@ (8001cd4 <HAL_RCC_GetSysClockFreq+0xb8>)
 8001ca8:	fb02 f303 	mul.w	r3, r2, r3
 8001cac:	627b      	str	r3, [r7, #36]	@ 0x24
 8001cae:	6a7b      	ldr	r3, [r7, #36]	@ 0x24
 8001cb0:	623b      	str	r3, [r7, #32]
 8001cb2:	e002      	b.n	8001cba <HAL_RCC_GetSysClockFreq+0x9e>
 8001cb4:	4b06      	ldr	r3, [pc, #24]	@ (8001cd0 <HAL_RCC_GetSysClockFreq+0xb4>)
 8001cb6:	623b      	str	r3, [r7, #32]
 8001cb8:	bf00      	nop
 8001cba:	6a3b      	ldr	r3, [r7, #32]
 8001cbc:	4618      	mov	r0, r3
 8001cbe:	3728      	adds	r7, #40	@ 0x28
 8001cc0:	46bd      	mov	sp, r7
 8001cc2:	bc90      	pop	{r4, r7}
 8001cc4:	4770      	bx	lr
 8001cc6:	bf00      	nop
 8001cc8:	08002ed8 	.word	0x08002ed8
 8001ccc:	40021000 	.word	0x40021000
 8001cd0:	007a1200 	.word	0x007a1200
 8001cd4:	003d0900 	.word	0x003d0900

08001cd8 <HAL_RCC_GetHCLKFreq>:
 8001cd8:	b480      	push	{r7}
 8001cda:	af00      	add	r7, sp, #0
 8001cdc:	4b02      	ldr	r3, [pc, #8]	@ (8001ce8 <HAL_RCC_GetHCLKFreq+0x10>)
 8001cde:	681b      	ldr	r3, [r3, #0]
 8001ce0:	4618      	mov	r0, r3
 8001ce2:	46bd      	mov	sp, r7
 8001ce4:	bc80      	pop	{r7}
 8001ce6:	4770      	bx	lr
 8001ce8:	20000004 	.word	0x20000004

08001cec <HAL_RCC_GetPCLK1Freq>:
 8001cec:	b580      	push	{r7, lr}
 8001cee:	af00      	add	r7, sp, #0
 8001cf0:	f7ff fff2 	bl	8001cd8 <HAL_RCC_GetHCLKFreq>
 8001cf4:	4602      	mov	r2, r0
 8001cf6:	4b05      	ldr	r3, [pc, #20]	@ (8001d0c <HAL_RCC_GetPCLK1Freq+0x20>)
 8001cf8:	685b      	ldr	r3, [r3, #4]
 8001cfa:	0a1b      	lsrs	r3, r3, #8
 8001cfc:	f003 0307 	and.w	r3, r3, #7
 8001d00:	4903      	ldr	r1, [pc, #12]	@ (8001d10 <HAL_RCC_GetPCLK1Freq+0x24>)
 8001d02:	5ccb      	ldrb	r3, [r1, r3]
 8001d04:	fa22 f303 	lsr.w	r3, r2, r3
 8001d08:	4618      	mov	r0, r3
 8001d0a:	bd80      	pop	{r7, pc}
 8001d0c:	40021000 	.word	0x40021000
 8001d10:	08002ef8 	.word	0x08002ef8

08001d14 <HAL_RCC_GetPCLK2Freq>:
 8001d14:	b580      	push	{r7, lr}
 8001d16:	af00      	add	r7, sp, #0
 8001d18:	f7ff ffde 	bl	8001cd8 <HAL_RCC_GetHCLKFreq>
 8001d1c:	4602      	mov	r2, r0
 8001d1e:	4b05      	ldr	r3, [pc, #20]	@ (8001d34 <HAL_RCC_GetPCLK2Freq+0x20>)
 8001d20:	685b      	ldr	r3, [r3, #4]
 8001d22:	0adb      	lsrs	r3, r3, #11
 8001d24:	f003 0307 	and.w	r3, r3, #7
 8001d28:	4903      	ldr	r1, [pc, #12]	@ (8001d38 <HAL_RCC_GetPCLK2Freq+0x24>)
 8001d2a:	5ccb      	ldrb	r3, [r1, r3]
 8001d2c:	fa22 f303 	lsr.w	r3, r2, r3
 8001d30:	4618      	mov	r0, r3
 8001d32:	bd80      	pop	{r7, pc}
 8001d34:	40021000 	.word	0x40021000
 8001d38:	08002ef8 	.word	0x08002ef8

08001d3c <RCC_Delay>:
 8001d3c:	b480      	push	{r7}
 8001d3e:	b085      	sub	sp, #20
 8001d40:	af00      	add	r7, sp, #0
 8001d42:	6078      	str	r0, [r7, #4]
 8001d44:	4b0a      	ldr	r3, [pc, #40]	@ (8001d70 <RCC_Delay+0x34>)
 8001d46:	681b      	ldr	r3, [r3, #0]
 8001d48:	4a0a      	ldr	r2, [pc, #40]	@ (8001d74 <RCC_Delay+0x38>)
 8001d4a:	fba2 2303 	umull	r2, r3, r2, r3
 8001d4e:	0a5b      	lsrs	r3, r3, #9
 8001d50:	687a      	ldr	r2, [r7, #4]
 8001d52:	fb02 f303 	mul.w	r3, r2, r3
 8001d56:	60fb      	str	r3, [r7, #12]
 8001d58:	bf00      	nop
 8001d5a:	68fb      	ldr	r3, [r7, #12]
 8001d5c:	1e5a      	subs	r2, r3, #1
 8001d5e:	60fa      	str	r2, [r7, #12]
 8001d60:	2b00      	cmp	r3, #0
 8001d62:	d1f9      	bne.n	8001d58 <RCC_Delay+0x1c>
 8001d64:	bf00      	nop
 8001d66:	bf00      	nop
 8001d68:	3714      	adds	r7, #20
 8001d6a:	46bd      	mov	sp, r7
 8001d6c:	bc80      	pop	{r7}
 8001d6e:	4770      	bx	lr
 8001d70:	20000004 	.word	0x20000004
 8001d74:	10624dd3 	.word	0x10624dd3

08001d78 <HAL_TIM_Base_Init>:
 8001d78:	b580      	push	{r7, lr}
 8001d7a:	b082      	sub	sp, #8
 8001d7c:	af00      	add	r7, sp, #0
 8001d7e:	6078      	str	r0, [r7, #4]
 8001d80:	687b      	ldr	r3, [r7, #4]
 8001d82:	2b00      	cmp	r3, #0
 8001d84:	d101      	bne.n	8001d8a <HAL_TIM_Base_Init+0x12>
 8001d86:	2301      	movs	r3, #1
 8001d88:	e041      	b.n	8001e0e <HAL_TIM_Base_Init+0x96>
 8001d8a:	687b      	ldr	r3, [r7, #4]
 8001d8c:	f893 303d 	ldrb.w	r3, [r3, #61]	@ 0x3d
 8001d90:	b2db      	uxtb	r3, r3
 8001d92:	2b00      	cmp	r3, #0
 8001d94:	d106      	bne.n	8001da4 <HAL_TIM_Base_Init+0x2c>
 8001d96:	687b      	ldr	r3, [r7, #4]
 8001d98:	2200      	movs	r2, #0
 8001d9a:	f883 203c 	strb.w	r2, [r3, #60]	@ 0x3c
 8001d9e:	6878      	ldr	r0, [r7, #4]
 8001da0:	f7fe ff56 	bl	8000c50 <HAL_TIM_Base_MspInit>
 8001da4:	687b      	ldr	r3, [r7, #4]
 8001da6:	2202      	movs	r2, #2
 8001da8:	f883 203d 	strb.w	r2, [r3, #61]	@ 0x3d
 8001dac:	687b      	ldr	r3, [r7, #4]
 8001dae:	681a      	ldr	r2, [r3, #0]
 8001db0:	687b      	ldr	r3, [r7, #4]
 8001db2:	3304      	adds	r3, #4
 8001db4:	4619      	mov	r1, r3
 8001db6:	4610      	mov	r0, r2
 8001db8:	f000 faaa 	bl	8002310 <TIM_Base_SetConfig>
 8001dbc:	687b      	ldr	r3, [r7, #4]
 8001dbe:	2201      	movs	r2, #1
 8001dc0:	f883 2046 	strb.w	r2, [r3, #70]	@ 0x46
 8001dc4:	687b      	ldr	r3, [r7, #4]
 8001dc6:	2201      	movs	r2, #1
 8001dc8:	f883 203e 	strb.w	r2, [r3, #62]	@ 0x3e
 8001dcc:	687b      	ldr	r3, [r7, #4]
 8001dce:	2201      	movs	r2, #1
 8001dd0:	f883 203f 	strb.w	r2, [r3, #63]	@ 0x3f
 8001dd4:	687b      	ldr	r3, [r7, #4]
 8001dd6:	2201      	movs	r2, #1
 8001dd8:	f883 2040 	strb.w	r2, [r3, #64]	@ 0x40
 8001ddc:	687b      	ldr	r3, [r7, #4]
 8001dde:	2201      	movs	r2, #1
 8001de0:	f883 2041 	strb.w	r2, [r3, #65]	@ 0x41
 8001de4:	687b      	ldr	r3, [r7, #4]
 8001de6:	2201      	movs	r2, #1
 8001de8:	f883 2042 	strb.w	r2, [r3, #66]	@ 0x42
 8001dec:	687b      	ldr	r3, [r7, #4]
 8001dee:	2201      	movs	r2, #1
 8001df0:	f883 2043 	strb.w	r2, [r3, #67]	@ 0x43
 8001df4:	687b      	ldr	r3, [r7, #4]
 8001df6:	2201      	movs	r2, #1
 8001df8:	f883 2044 	strb.w	r2, [r3, #68]	@ 0x44
 8001dfc:	687b      	ldr	r3, [r7, #4]
 8001dfe:	2201      	movs	r2, #1
 8001e00:	f883 2045 	strb.w	r2, [r3, #69]	@ 0x45
 8001e04:	687b      	ldr	r3, [r7, #4]
 8001e06:	2201      	movs	r2, #1
 8001e08:	f883 203d 	strb.w	r2, [r3, #61]	@ 0x3d
 8001e0c:	2300      	movs	r3, #0
 8001e0e:	4618      	mov	r0, r3
 8001e10:	3708      	adds	r7, #8
 8001e12:	46bd      	mov	sp, r7
 8001e14:	bd80      	pop	{r7, pc}

08001e16 <HAL_TIM_PWM_Init>:
 8001e16:	b580      	push	{r7, lr}
 8001e18:	b082      	sub	sp, #8
 8001e1a:	af00      	add	r7, sp, #0
 8001e1c:	6078      	str	r0, [r7, #4]
 8001e1e:	687b      	ldr	r3, [r7, #4]
 8001e20:	2b00      	cmp	r3, #0
 8001e22:	d101      	bne.n	8001e28 <HAL_TIM_PWM_Init+0x12>
 8001e24:	2301      	movs	r3, #1
 8001e26:	e041      	b.n	8001eac <HAL_TIM_PWM_Init+0x96>
 8001e28:	687b      	ldr	r3, [r7, #4]
 8001e2a:	f893 303d 	ldrb.w	r3, [r3, #61]	@ 0x3d
 8001e2e:	b2db      	uxtb	r3, r3
 8001e30:	2b00      	cmp	r3, #0
 8001e32:	d106      	bne.n	8001e42 <HAL_TIM_PWM_Init+0x2c>
 8001e34:	687b      	ldr	r3, [r7, #4]
 8001e36:	2200      	movs	r2, #0
 8001e38:	f883 203c 	strb.w	r2, [r3, #60]	@ 0x3c
 8001e3c:	6878      	ldr	r0, [r7, #4]
 8001e3e:	f000 f839 	bl	8001eb4 <HAL_TIM_PWM_MspInit>
 8001e42:	687b      	ldr	r3, [r7, #4]
 8001e44:	2202      	movs	r2, #2
 8001e46:	f883 203d 	strb.w	r2, [r3, #61]	@ 0x3d
 8001e4a:	687b      	ldr	r3, [r7, #4]
 8001e4c:	681a      	ldr	r2, [r3, #0]
 8001e4e:	687b      	ldr	r3, [r7, #4]
 8001e50:	3304      	adds	r3, #4
 8001e52:	4619      	mov	r1, r3
 8001e54:	4610      	mov	r0, r2
 8001e56:	f000 fa5b 	bl	8002310 <TIM_Base_SetConfig>
 8001e5a:	687b      	ldr	r3, [r7, #4]
 8001e5c:	2201      	movs	r2, #1
 8001e5e:	f883 2046 	strb.w	r2, [r3, #70]	@ 0x46
 8001e62:	687b      	ldr	r3, [r7, #4]
 8001e64:	2201      	movs	r2, #1
 8001e66:	f883 203e 	strb.w	r2, [r3, #62]	@ 0x3e
 8001e6a:	687b      	ldr	r3, [r7, #4]
 8001e6c:	2201      	movs	r2, #1
 8001e6e:	f883 203f 	strb.w	r2, [r3, #63]	@ 0x3f
 8001e72:	687b      	ldr	r3, [r7, #4]
 8001e74:	2201      	movs	r2, #1
 8001e76:	f883 2040 	strb.w	r2, [r3, #64]	@ 0x40
 8001e7a:	687b      	ldr	r3, [r7, #4]
 8001e7c:	2201      	movs	r2, #1
 8001e7e:	f883 2041 	strb.w	r2, [r3, #65]	@ 0x41
 8001e82:	687b      	ldr	r3, [r7, #4]
 8001e84:	2201      	movs	r2, #1
 8001e86:	f883 2042 	strb.w	r2, [r3, #66]	@ 0x42
 8001e8a:	687b      	ldr	r3, [r7, #4]
 8001e8c:	2201      	movs	r2, #1
 8001e8e:	f883 2043 	strb.w	r2, [r3, #67]	@ 0x43
 8001e92:	687b      	ldr	r3, [r7, #4]
 8001e94:	2201      	movs	r2, #1
 8001e96:	f883 2044 	strb.w	r2, [r3, #68]	@ 0x44
 8001e9a:	687b      	ldr	r3, [r7, #4]
 8001e9c:	2201      	movs	r2, #1
 8001e9e:	f883 2045 	strb.w	r2, [r3, #69]	@ 0x45
 8001ea2:	687b      	ldr	r3, [r7, #4]
 8001ea4:	2201      	movs	r2, #1
 8001ea6:	f883 203d 	strb.w	r2, [r3, #61]	@ 0x3d
 8001eaa:	2300      	movs	r3, #0
 8001eac:	4618      	mov	r0, r3
 8001eae:	3708      	adds	r7, #8
 8001eb0:	46bd      	mov	sp, r7
 8001eb2:	bd80      	pop	{r7, pc}

08001eb4 <HAL_TIM_PWM_MspInit>:
 8001eb4:	b480      	push	{r7}
 8001eb6:	b083      	sub	sp, #12
 8001eb8:	af00      	add	r7, sp, #0
 8001eba:	6078      	str	r0, [r7, #4]
 8001ebc:	bf00      	nop
 8001ebe:	370c      	adds	r7, #12
 8001ec0:	46bd      	mov	sp, r7
 8001ec2:	bc80      	pop	{r7}
 8001ec4:	4770      	bx	lr
	...

08001ec8 <HAL_TIM_PWM_Start>:
 8001ec8:	b580      	push	{r7, lr}
 8001eca:	b084      	sub	sp, #16
 8001ecc:	af00      	add	r7, sp, #0
 8001ece:	6078      	str	r0, [r7, #4]
 8001ed0:	6039      	str	r1, [r7, #0]
 8001ed2:	683b      	ldr	r3, [r7, #0]
 8001ed4:	2b00      	cmp	r3, #0
 8001ed6:	d109      	bne.n	8001eec <HAL_TIM_PWM_Start+0x24>
 8001ed8:	687b      	ldr	r3, [r7, #4]
 8001eda:	f893 303e 	ldrb.w	r3, [r3, #62]	@ 0x3e
 8001ede:	b2db      	uxtb	r3, r3
 8001ee0:	2b01      	cmp	r3, #1
 8001ee2:	bf14      	ite	ne
 8001ee4:	2301      	movne	r3, #1
 8001ee6:	2300      	moveq	r3, #0
 8001ee8:	b2db      	uxtb	r3, r3
 8001eea:	e022      	b.n	8001f32 <HAL_TIM_PWM_Start+0x6a>
 8001eec:	683b      	ldr	r3, [r7, #0]
 8001eee:	2b04      	cmp	r3, #4
 8001ef0:	d109      	bne.n	8001f06 <HAL_TIM_PWM_Start+0x3e>
 8001ef2:	687b      	ldr	r3, [r7, #4]
 8001ef4:	f893 303f 	ldrb.w	r3, [r3, #63]	@ 0x3f
 8001ef8:	b2db      	uxtb	r3, r3
 8001efa:	2b01      	cmp	r3, #1
 8001efc:	bf14      	ite	ne
 8001efe:	2301      	movne	r3, #1
 8001f00:	2300      	moveq	r3, #0
 8001f02:	b2db      	uxtb	r3, r3
 8001f04:	e015      	b.n	8001f32 <HAL_TIM_PWM_Start+0x6a>
 8001f06:	683b      	ldr	r3, [r7, #0]
 8001f08:	2b08      	cmp	r3, #8
 8001f0a:	d109      	bne.n	8001f20 <HAL_TIM_PWM_Start+0x58>
 8001f0c:	687b      	ldr	r3, [r7, #4]
 8001f0e:	f893 3040 	ldrb.w	r3, [r3, #64]	@ 0x40
 8001f12:	b2db      	uxtb	r3, r3
 8001f14:	2b01      	cmp	r3, #1
 8001f16:	bf14      	ite	ne
 8001f18:	2301      	movne	r3, #1
 8001f1a:	2300      	moveq	r3, #0
 8001f1c:	b2db      	uxtb	r3, r3
 8001f1e:	e008      	b.n	8001f32 <HAL_TIM_PWM_Start+0x6a>
 8001f20:	687b      	ldr	r3, [r7, #4]
 8001f22:	f893 3041 	ldrb.w	r3, [r3, #65]	@ 0x41
 8001f26:	b2db      	uxtb	r3, r3
 8001f28:	2b01      	cmp	r3, #1
 8001f2a:	bf14      	ite	ne
 8001f2c:	2301      	movne	r3, #1
 8001f2e:	2300      	moveq	r3, #0
 8001f30:	b2db      	uxtb	r3, r3
 8001f32:	2b00      	cmp	r3, #0
 8001f34:	d001      	beq.n	8001f3a <HAL_TIM_PWM_Start+0x72>
 8001f36:	2301      	movs	r3, #1
 8001f38:	e05e      	b.n	8001ff8 <HAL_TIM_PWM_Start+0x130>
 8001f3a:	683b      	ldr	r3, [r7, #0]
 8001f3c:	2b00      	cmp	r3, #0
 8001f3e:	d104      	bne.n	8001f4a <HAL_TIM_PWM_Start+0x82>
 8001f40:	687b      	ldr	r3, [r7, #4]
 8001f42:	2202      	movs	r2, #2
 8001f44:	f883 203e 	strb.w	r2, [r3, #62]	@ 0x3e
 8001f48:	e013      	b.n	8001f72 <HAL_TIM_PWM_Start+0xaa>
 8001f4a:	683b      	ldr	r3, [r7, #0]
 8001f4c:	2b04      	cmp	r3, #4
 8001f4e:	d104      	bne.n	8001f5a <HAL_TIM_PWM_Start+0x92>
 8001f50:	687b      	ldr	r3, [r7, #4]
 8001f52:	2202      	movs	r2, #2
 8001f54:	f883 203f 	strb.w	r2, [r3, #63]	@ 0x3f
 8001f58:	e00b      	b.n	8001f72 <HAL_TIM_PWM_Start+0xaa>
 8001f5a:	683b      	ldr	r3, [r7, #0]
 8001f5c:	2b08      	cmp	r3, #8
 8001f5e:	d104      	bne.n	8001f6a <HAL_TIM_PWM_Start+0xa2>
 8001f60:	687b      	ldr	r3, [r7, #4]
 8001f62:	2202      	movs	r2, #2
 8001f64:	f883 2040 	strb.w	r2, [r3, #64]	@ 0x40
 8001f68:	e003      	b.n	8001f72 <HAL_TIM_PWM_Start+0xaa>
 8001f6a:	687b      	ldr	r3, [r7, #4]
 8001f6c:	2202      	movs	r2, #2
 8001f6e:	f883 2041 	strb.w	r2, [r3, #65]	@ 0x41
 8001f72:	687b      	ldr	r3, [r7, #4]
 8001f74:	681b      	ldr	r3, [r3, #0]
 8001f76:	2201      	movs	r2, #1
 8001f78:	6839      	ldr	r1, [r7, #0]
 8001f7a:	4618      	mov	r0, r3
 8001f7c:	f000 fc48 	bl	8002810 <TIM_CCxChannelCmd>
 8001f80:	687b      	ldr	r3, [r7, #4]
 8001f82:	681b      	ldr	r3, [r3, #0]
 8001f84:	4a1e      	ldr	r2, [pc, #120]	@ (8002000 <HAL_TIM_PWM_Start+0x138>)
 8001f86:	4293      	cmp	r3, r2
 8001f88:	d107      	bne.n	8001f9a <HAL_TIM_PWM_Start+0xd2>
 8001f8a:	687b      	ldr	r3, [r7, #4]
 8001f8c:	681b      	ldr	r3, [r3, #0]
 8001f8e:	6c5a      	ldr	r2, [r3, #68]	@ 0x44
 8001f90:	687b      	ldr	r3, [r7, #4]
 8001f92:	681b      	ldr	r3, [r3, #0]
 8001f94:	f442 4200 	orr.w	r2, r2, #32768	@ 0x8000
 8001f98:	645a      	str	r2, [r3, #68]	@ 0x44
 8001f9a:	687b      	ldr	r3, [r7, #4]
 8001f9c:	681b      	ldr	r3, [r3, #0]
 8001f9e:	4a18      	ldr	r2, [pc, #96]	@ (8002000 <HAL_TIM_PWM_Start+0x138>)
 8001fa0:	4293      	cmp	r3, r2
 8001fa2:	d00e      	beq.n	8001fc2 <HAL_TIM_PWM_Start+0xfa>
 8001fa4:	687b      	ldr	r3, [r7, #4]
 8001fa6:	681b      	ldr	r3, [r3, #0]
 8001fa8:	f1b3 4f80 	cmp.w	r3, #1073741824	@ 0x40000000
 8001fac:	d009      	beq.n	8001fc2 <HAL_TIM_PWM_Start+0xfa>
 8001fae:	687b      	ldr	r3, [r7, #4]
 8001fb0:	681b      	ldr	r3, [r3, #0]
 8001fb2:	4a14      	ldr	r2, [pc, #80]	@ (8002004 <HAL_TIM_PWM_Start+0x13c>)
 8001fb4:	4293      	cmp	r3, r2
 8001fb6:	d004      	beq.n	8001fc2 <HAL_TIM_PWM_Start+0xfa>
 8001fb8:	687b      	ldr	r3, [r7, #4]
 8001fba:	681b      	ldr	r3, [r3, #0]
 8001fbc:	4a12      	ldr	r2, [pc, #72]	@ (8002008 <HAL_TIM_PWM_Start+0x140>)
 8001fbe:	4293      	cmp	r3, r2
 8001fc0:	d111      	bne.n	8001fe6 <HAL_TIM_PWM_Start+0x11e>
 8001fc2:	687b      	ldr	r3, [r7, #4]
 8001fc4:	681b      	ldr	r3, [r3, #0]
 8001fc6:	689b      	ldr	r3, [r3, #8]
 8001fc8:	f003 0307 	and.w	r3, r3, #7
 8001fcc:	60fb      	str	r3, [r7, #12]
 8001fce:	68fb      	ldr	r3, [r7, #12]
 8001fd0:	2b06      	cmp	r3, #6
 8001fd2:	d010      	beq.n	8001ff6 <HAL_TIM_PWM_Start+0x12e>
 8001fd4:	687b      	ldr	r3, [r7, #4]
 8001fd6:	681b      	ldr	r3, [r3, #0]
 8001fd8:	681a      	ldr	r2, [r3, #0]
 8001fda:	687b      	ldr	r3, [r7, #4]
 8001fdc:	681b      	ldr	r3, [r3, #0]
 8001fde:	f042 0201 	orr.w	r2, r2, #1
 8001fe2:	601a      	str	r2, [r3, #0]
 8001fe4:	e007      	b.n	8001ff6 <HAL_TIM_PWM_Start+0x12e>
 8001fe6:	687b      	ldr	r3, [r7, #4]
 8001fe8:	681b      	ldr	r3, [r3, #0]
 8001fea:	681a      	ldr	r2, [r3, #0]
 8001fec:	687b      	ldr	r3, [r7, #4]
 8001fee:	681b      	ldr	r3, [r3, #0]
 8001ff0:	f042 0201 	orr.w	r2, r2, #1
 8001ff4:	601a      	str	r2, [r3, #0]
 8001ff6:	2300      	movs	r3, #0
 8001ff8:	4618      	mov	r0, r3
 8001ffa:	3710      	adds	r7, #16
 8001ffc:	46bd      	mov	sp, r7
 8001ffe:	bd80      	pop	{r7, pc}
 8002000:	40012c00 	.word	0x40012c00
 8002004:	40000400 	.word	0x40000400
 8002008:	40000800 	.word	0x40000800

0800200c <HAL_TIM_PWM_ConfigChannel>:
 800200c:	b580      	push	{r7, lr}
 800200e:	b084      	sub	sp, #16
 8002010:	af00      	add	r7, sp, #0
 8002012:	60f8      	str	r0, [r7, #12]
 8002014:	60b9      	str	r1, [r7, #8]
 8002016:	607a      	str	r2, [r7, #4]
 8002018:	68fb      	ldr	r3, [r7, #12]
 800201a:	f893 303c 	ldrb.w	r3, [r3, #60]	@ 0x3c
 800201e:	2b01      	cmp	r3, #1
 8002020:	d101      	bne.n	8002026 <HAL_TIM_PWM_ConfigChannel+0x1a>
 8002022:	2302      	movs	r3, #2
 8002024:	e0ac      	b.n	8002180 <HAL_TIM_PWM_ConfigChannel+0x174>
 8002026:	68fb      	ldr	r3, [r7, #12]
 8002028:	2201      	movs	r2, #1
 800202a:	f883 203c 	strb.w	r2, [r3, #60]	@ 0x3c
 800202e:	687b      	ldr	r3, [r7, #4]
 8002030:	2b0c      	cmp	r3, #12
 8002032:	f200 809f 	bhi.w	8002174 <HAL_TIM_PWM_ConfigChannel+0x168>
 8002036:	a201      	add	r2, pc, #4	@ (adr r2, 800203c <HAL_TIM_PWM_ConfigChannel+0x30>)
 8002038:	f852 f023 	ldr.w	pc, [r2, r3, lsl #2]
 800203c:	08002071 	.word	0x08002071
 8002040:	08002175 	.word	0x08002175
 8002044:	08002175 	.word	0x08002175
 8002048:	08002175 	.word	0x08002175
 800204c:	080020b1 	.word	0x080020b1
 8002050:	08002175 	.word	0x08002175
 8002054:	08002175 	.word	0x08002175
 8002058:	08002175 	.word	0x08002175
 800205c:	080020f3 	.word	0x080020f3
 8002060:	08002175 	.word	0x08002175
 8002064:	08002175 	.word	0x08002175
 8002068:	08002175 	.word	0x08002175
 800206c:	08002133 	.word	0x08002133
 8002070:	68fb      	ldr	r3, [r7, #12]
 8002072:	681b      	ldr	r3, [r3, #0]
 8002074:	68b9      	ldr	r1, [r7, #8]
 8002076:	4618      	mov	r0, r3
 8002078:	f000 f9ac 	bl	80023d4 <TIM_OC1_SetConfig>
 800207c:	68fb      	ldr	r3, [r7, #12]
 800207e:	681b      	ldr	r3, [r3, #0]
 8002080:	699a      	ldr	r2, [r3, #24]
 8002082:	68fb      	ldr	r3, [r7, #12]
 8002084:	681b      	ldr	r3, [r3, #0]
 8002086:	f042 0208 	orr.w	r2, r2, #8
 800208a:	619a      	str	r2, [r3, #24]
 800208c:	68fb      	ldr	r3, [r7, #12]
 800208e:	681b      	ldr	r3, [r3, #0]
 8002090:	699a      	ldr	r2, [r3, #24]
 8002092:	68fb      	ldr	r3, [r7, #12]
 8002094:	681b      	ldr	r3, [r3, #0]
 8002096:	f022 0204 	bic.w	r2, r2, #4
 800209a:	619a      	str	r2, [r3, #24]
 800209c:	68fb      	ldr	r3, [r7, #12]
 800209e:	681b      	ldr	r3, [r3, #0]
 80020a0:	6999      	ldr	r1, [r3, #24]
 80020a2:	68bb      	ldr	r3, [r7, #8]
 80020a4:	691a      	ldr	r2, [r3, #16]
 80020a6:	68fb      	ldr	r3, [r7, #12]
 80020a8:	681b      	ldr	r3, [r3, #0]
 80020aa:	430a      	orrs	r2, r1
 80020ac:	619a      	str	r2, [r3, #24]
 80020ae:	e062      	b.n	8002176 <HAL_TIM_PWM_ConfigChannel+0x16a>
 80020b0:	68fb      	ldr	r3, [r7, #12]
 80020b2:	681b      	ldr	r3, [r3, #0]
 80020b4:	68b9      	ldr	r1, [r7, #8]
 80020b6:	4618      	mov	r0, r3
 80020b8:	f000 f9f2 	bl	80024a0 <TIM_OC2_SetConfig>
 80020bc:	68fb      	ldr	r3, [r7, #12]
 80020be:	681b      	ldr	r3, [r3, #0]
 80020c0:	699a      	ldr	r2, [r3, #24]
 80020c2:	68fb      	ldr	r3, [r7, #12]
 80020c4:	681b      	ldr	r3, [r3, #0]
 80020c6:	f442 6200 	orr.w	r2, r2, #2048	@ 0x800
 80020ca:	619a      	str	r2, [r3, #24]
 80020cc:	68fb      	ldr	r3, [r7, #12]
 80020ce:	681b      	ldr	r3, [r3, #0]
 80020d0:	699a      	ldr	r2, [r3, #24]
 80020d2:	68fb      	ldr	r3, [r7, #12]
 80020d4:	681b      	ldr	r3, [r3, #0]
 80020d6:	f422 6280 	bic.w	r2, r2, #1024	@ 0x400
 80020da:	619a      	str	r2, [r3, #24]
 80020dc:	68fb      	ldr	r3, [r7, #12]
 80020de:	681b      	ldr	r3, [r3, #0]
 80020e0:	6999      	ldr	r1, [r3, #24]
 80020e2:	68bb      	ldr	r3, [r7, #8]
 80020e4:	691b      	ldr	r3, [r3, #16]
 80020e6:	021a      	lsls	r2, r3, #8
 80020e8:	68fb      	ldr	r3, [r7, #12]
 80020ea:	681b      	ldr	r3, [r3, #0]
 80020ec:	430a      	orrs	r2, r1
 80020ee:	619a      	str	r2, [r3, #24]
 80020f0:	e041      	b.n	8002176 <HAL_TIM_PWM_ConfigChannel+0x16a>
 80020f2:	68fb      	ldr	r3, [r7, #12]
 80020f4:	681b      	ldr	r3, [r3, #0]
 80020f6:	68b9      	ldr	r1, [r7, #8]
 80020f8:	4618      	mov	r0, r3
 80020fa:	f000 fa3b 	bl	8002574 <TIM_OC3_SetConfig>
 80020fe:	68fb      	ldr	r3, [r7, #12]
 8002100:	681b      	ldr	r3, [r3, #0]
 8002102:	69da      	ldr	r2, [r3, #28]
 8002104:	68fb      	ldr	r3, [r7, #12]
 8002106:	681b      	ldr	r3, [r3, #0]
 8002108:	f042 0208 	orr.w	r2, r2, #8
 800210c:	61da      	str	r2, [r3, #28]
 800210e:	68fb      	ldr	r3, [r7, #12]
 8002110:	681b      	ldr	r3, [r3, #0]
 8002112:	69da      	ldr	r2, [r3, #28]
 8002114:	68fb      	ldr	r3, [r7, #12]
 8002116:	681b      	ldr	r3, [r3, #0]
 8002118:	f022 0204 	bic.w	r2, r2, #4
 800211c:	61da      	str	r2, [r3, #28]
 800211e:	68fb      	ldr	r3, [r7, #12]
 8002120:	681b      	ldr	r3, [r3, #0]
 8002122:	69d9      	ldr	r1, [r3, #28]
 8002124:	68bb      	ldr	r3, [r7, #8]
 8002126:	691a      	ldr	r2, [r3, #16]
 8002128:	68fb      	ldr	r3, [r7, #12]
 800212a:	681b      	ldr	r3, [r3, #0]
 800212c:	430a      	orrs	r2, r1
 800212e:	61da      	str	r2, [r3, #28]
 8002130:	e021      	b.n	8002176 <HAL_TIM_PWM_ConfigChannel+0x16a>
 8002132:	68fb      	ldr	r3, [r7, #12]
 8002134:	681b      	ldr	r3, [r3, #0]
 8002136:	68b9      	ldr	r1, [r7, #8]
 8002138:	4618      	mov	r0, r3
 800213a:	f000 fa85 	bl	8002648 <TIM_OC4_SetConfig>
 800213e:	68fb      	ldr	r3, [r7, #12]
 8002140:	681b      	ldr	r3, [r3, #0]
 8002142:	69da      	ldr	r2, [r3, #28]
 8002144:	68fb      	ldr	r3, [r7, #12]
 8002146:	681b      	ldr	r3, [r3, #0]
 8002148:	f442 6200 	orr.w	r2, r2, #2048	@ 0x800
 800214c:	61da      	str	r2, [r3, #28]
 800214e:	68fb      	ldr	r3, [r7, #12]
 8002150:	681b      	ldr	r3, [r3, #0]
 8002152:	69da      	ldr	r2, [r3, #28]
 8002154:	68fb      	ldr	r3, [r7, #12]
 8002156:	681b      	ldr	r3, [r3, #0]
 8002158:	f422 6280 	bic.w	r2, r2, #1024	@ 0x400
 800215c:	61da      	str	r2, [r3, #28]
 800215e:	68fb      	ldr	r3, [r7, #12]
 8002160:	681b      	ldr	r3, [r3, #0]
 8002162:	69d9      	ldr	r1, [r3, #28]
 8002164:	68bb      	ldr	r3, [r7, #8]
 8002166:	691b      	ldr	r3, [r3, #16]
 8002168:	021a      	lsls	r2, r3, #8
 800216a:	68fb      	ldr	r3, [r7, #12]
 800216c:	681b      	ldr	r3, [r3, #0]
 800216e:	430a      	orrs	r2, r1
 8002170:	61da      	str	r2, [r3, #28]
 8002172:	e000      	b.n	8002176 <HAL_TIM_PWM_ConfigChannel+0x16a>
 8002174:	bf00      	nop
 8002176:	68fb      	ldr	r3, [r7, #12]
 8002178:	2200      	movs	r2, #0
 800217a:	f883 203c 	strb.w	r2, [r3, #60]	@ 0x3c
 800217e:	2300      	movs	r3, #0
 8002180:	4618      	mov	r0, r3
 8002182:	3710      	adds	r7, #16
 8002184:	46bd      	mov	sp, r7
 8002186:	bd80      	pop	{r7, pc}

08002188 <HAL_TIM_ConfigClockSource>:
 8002188:	b580      	push	{r7, lr}
 800218a:	b084      	sub	sp, #16
 800218c:	af00      	add	r7, sp, #0
 800218e:	6078      	str	r0, [r7, #4]
 8002190:	6039      	str	r1, [r7, #0]
 8002192:	687b      	ldr	r3, [r7, #4]
 8002194:	f893 303c 	ldrb.w	r3, [r3, #60]	@ 0x3c
 8002198:	2b01      	cmp	r3, #1
 800219a:	d101      	bne.n	80021a0 <HAL_TIM_ConfigClockSource+0x18>
 800219c:	2302      	movs	r3, #2
 800219e:	e0b3      	b.n	8002308 <HAL_TIM_ConfigClockSource+0x180>
 80021a0:	687b      	ldr	r3, [r7, #4]
 80021a2:	2201      	movs	r2, #1
 80021a4:	f883 203c 	strb.w	r2, [r3, #60]	@ 0x3c
 80021a8:	687b      	ldr	r3, [r7, #4]
 80021aa:	2202      	movs	r2, #2
 80021ac:	f883 203d 	strb.w	r2, [r3, #61]	@ 0x3d
 80021b0:	687b      	ldr	r3, [r7, #4]
 80021b2:	681b      	ldr	r3, [r3, #0]
 80021b4:	689b      	ldr	r3, [r3, #8]
 80021b6:	60fb      	str	r3, [r7, #12]
 80021b8:	68fb      	ldr	r3, [r7, #12]
 80021ba:	f023 0377 	bic.w	r3, r3, #119	@ 0x77
 80021be:	60fb      	str	r3, [r7, #12]
 80021c0:	68fb      	ldr	r3, [r7, #12]
 80021c2:	f423 437f 	bic.w	r3, r3, #65280	@ 0xff00
 80021c6:	60fb      	str	r3, [r7, #12]
 80021c8:	687b      	ldr	r3, [r7, #4]
 80021ca:	681b      	ldr	r3, [r3, #0]
 80021cc:	68fa      	ldr	r2, [r7, #12]
 80021ce:	609a      	str	r2, [r3, #8]
 80021d0:	683b      	ldr	r3, [r7, #0]
 80021d2:	681b      	ldr	r3, [r3, #0]
 80021d4:	f5b3 5f00 	cmp.w	r3, #8192	@ 0x2000
 80021d8:	d03e      	beq.n	8002258 <HAL_TIM_ConfigClockSource+0xd0>
 80021da:	f5b3 5f00 	cmp.w	r3, #8192	@ 0x2000
 80021de:	f200 8087 	bhi.w	80022f0 <HAL_TIM_ConfigClockSource+0x168>
 80021e2:	f5b3 5f80 	cmp.w	r3, #4096	@ 0x1000
 80021e6:	f000 8085 	beq.w	80022f4 <HAL_TIM_ConfigClockSource+0x16c>
 80021ea:	f5b3 5f80 	cmp.w	r3, #4096	@ 0x1000
 80021ee:	d87f      	bhi.n	80022f0 <HAL_TIM_ConfigClockSource+0x168>
 80021f0:	2b70      	cmp	r3, #112	@ 0x70
 80021f2:	d01a      	beq.n	800222a <HAL_TIM_ConfigClockSource+0xa2>
 80021f4:	2b70      	cmp	r3, #112	@ 0x70
 80021f6:	d87b      	bhi.n	80022f0 <HAL_TIM_ConfigClockSource+0x168>
 80021f8:	2b60      	cmp	r3, #96	@ 0x60
 80021fa:	d050      	beq.n	800229e <HAL_TIM_ConfigClockSource+0x116>
 80021fc:	2b60      	cmp	r3, #96	@ 0x60
 80021fe:	d877      	bhi.n	80022f0 <HAL_TIM_ConfigClockSource+0x168>
 8002200:	2b50      	cmp	r3, #80	@ 0x50
 8002202:	d03c      	beq.n	800227e <HAL_TIM_ConfigClockSource+0xf6>
 8002204:	2b50      	cmp	r3, #80	@ 0x50
 8002206:	d873      	bhi.n	80022f0 <HAL_TIM_ConfigClockSource+0x168>
 8002208:	2b40      	cmp	r3, #64	@ 0x40
 800220a:	d058      	beq.n	80022be <HAL_TIM_ConfigClockSource+0x136>
 800220c:	2b40      	cmp	r3, #64	@ 0x40
 800220e:	d86f      	bhi.n	80022f0 <HAL_TIM_ConfigClockSource+0x168>
 8002210:	2b30      	cmp	r3, #48	@ 0x30
 8002212:	d064      	beq.n	80022de <HAL_TIM_ConfigClockSource+0x156>
 8002214:	2b30      	cmp	r3, #48	@ 0x30
 8002216:	d86b      	bhi.n	80022f0 <HAL_TIM_ConfigClockSource+0x168>
 8002218:	2b20      	cmp	r3, #32
 800221a:	d060      	beq.n	80022de <HAL_TIM_ConfigClockSource+0x156>
 800221c:	2b20      	cmp	r3, #32
 800221e:	d867      	bhi.n	80022f0 <HAL_TIM_ConfigClockSource+0x168>
 8002220:	2b00      	cmp	r3, #0
 8002222:	d05c      	beq.n	80022de <HAL_TIM_ConfigClockSource+0x156>
 8002224:	2b10      	cmp	r3, #16
 8002226:	d05a      	beq.n	80022de <HAL_TIM_ConfigClockSource+0x156>
 8002228:	e062      	b.n	80022f0 <HAL_TIM_ConfigClockSource+0x168>
 800222a:	687b      	ldr	r3, [r7, #4]
 800222c:	6818      	ldr	r0, [r3, #0]
 800222e:	683b      	ldr	r3, [r7, #0]
 8002230:	6899      	ldr	r1, [r3, #8]
 8002232:	683b      	ldr	r3, [r7, #0]
 8002234:	685a      	ldr	r2, [r3, #4]
 8002236:	683b      	ldr	r3, [r7, #0]
 8002238:	68db      	ldr	r3, [r3, #12]
 800223a:	f000 faca 	bl	80027d2 <TIM_ETR_SetConfig>
 800223e:	687b      	ldr	r3, [r7, #4]
 8002240:	681b      	ldr	r3, [r3, #0]
 8002242:	689b      	ldr	r3, [r3, #8]
 8002244:	60fb      	str	r3, [r7, #12]
 8002246:	68fb      	ldr	r3, [r7, #12]
 8002248:	f043 0377 	orr.w	r3, r3, #119	@ 0x77
 800224c:	60fb      	str	r3, [r7, #12]
 800224e:	687b      	ldr	r3, [r7, #4]
 8002250:	681b      	ldr	r3, [r3, #0]
 8002252:	68fa      	ldr	r2, [r7, #12]
 8002254:	609a      	str	r2, [r3, #8]
 8002256:	e04e      	b.n	80022f6 <HAL_TIM_ConfigClockSource+0x16e>
 8002258:	687b      	ldr	r3, [r7, #4]
 800225a:	6818      	ldr	r0, [r3, #0]
 800225c:	683b      	ldr	r3, [r7, #0]
 800225e:	6899      	ldr	r1, [r3, #8]
 8002260:	683b      	ldr	r3, [r7, #0]
 8002262:	685a      	ldr	r2, [r3, #4]
 8002264:	683b      	ldr	r3, [r7, #0]
 8002266:	68db      	ldr	r3, [r3, #12]
 8002268:	f000 fab3 	bl	80027d2 <TIM_ETR_SetConfig>
 800226c:	687b      	ldr	r3, [r7, #4]
 800226e:	681b      	ldr	r3, [r3, #0]
 8002270:	689a      	ldr	r2, [r3, #8]
 8002272:	687b      	ldr	r3, [r7, #4]
 8002274:	681b      	ldr	r3, [r3, #0]
 8002276:	f442 4280 	orr.w	r2, r2, #16384	@ 0x4000
 800227a:	609a      	str	r2, [r3, #8]
 800227c:	e03b      	b.n	80022f6 <HAL_TIM_ConfigClockSource+0x16e>
 800227e:	687b      	ldr	r3, [r7, #4]
 8002280:	6818      	ldr	r0, [r3, #0]
 8002282:	683b      	ldr	r3, [r7, #0]
 8002284:	6859      	ldr	r1, [r3, #4]
 8002286:	683b      	ldr	r3, [r7, #0]
 8002288:	68db      	ldr	r3, [r3, #12]
 800228a:	461a      	mov	r2, r3
 800228c:	f000 fa2a 	bl	80026e4 <TIM_TI1_ConfigInputStage>
 8002290:	687b      	ldr	r3, [r7, #4]
 8002292:	681b      	ldr	r3, [r3, #0]
 8002294:	2150      	movs	r1, #80	@ 0x50
 8002296:	4618      	mov	r0, r3
 8002298:	f000 fa81 	bl	800279e <TIM_ITRx_SetConfig>
 800229c:	e02b      	b.n	80022f6 <HAL_TIM_ConfigClockSource+0x16e>
 800229e:	687b      	ldr	r3, [r7, #4]
 80022a0:	6818      	ldr	r0, [r3, #0]
 80022a2:	683b      	ldr	r3, [r7, #0]
 80022a4:	6859      	ldr	r1, [r3, #4]
 80022a6:	683b      	ldr	r3, [r7, #0]
 80022a8:	68db      	ldr	r3, [r3, #12]
 80022aa:	461a      	mov	r2, r3
 80022ac:	f000 fa48 	bl	8002740 <TIM_TI2_ConfigInputStage>
 80022b0:	687b      	ldr	r3, [r7, #4]
 80022b2:	681b      	ldr	r3, [r3, #0]
 80022b4:	2160      	movs	r1, #96	@ 0x60
 80022b6:	4618      	mov	r0, r3
 80022b8:	f000 fa71 	bl	800279e <TIM_ITRx_SetConfig>
 80022bc:	e01b      	b.n	80022f6 <HAL_TIM_ConfigClockSource+0x16e>
 80022be:	687b      	ldr	r3, [r7, #4]
 80022c0:	6818      	ldr	r0, [r3, #0]
 80022c2:	683b      	ldr	r3, [r7, #0]
 80022c4:	6859      	ldr	r1, [r3, #4]
 80022c6:	683b      	ldr	r3, [r7, #0]
 80022c8:	68db      	ldr	r3, [r3, #12]
 80022ca:	461a      	mov	r2, r3
 80022cc:	f000 fa0a 	bl	80026e4 <TIM_TI1_ConfigInputStage>
 80022d0:	687b      	ldr	r3, [r7, #4]
 80022d2:	681b      	ldr	r3, [r3, #0]
 80022d4:	2140      	movs	r1, #64	@ 0x40
 80022d6:	4618      	mov	r0, r3
 80022d8:	f000 fa61 	bl	800279e <TIM_ITRx_SetConfig>
 80022dc:	e00b      	b.n	80022f6 <HAL_TIM_ConfigClockSource+0x16e>
 80022de:	687b      	ldr	r3, [r7, #4]
 80022e0:	681a      	ldr	r2, [r3, #0]
 80022e2:	683b      	ldr	r3, [r7, #0]
 80022e4:	681b      	ldr	r3, [r3, #0]
 80022e6:	4619      	mov	r1, r3
 80022e8:	4610      	mov	r0, r2
 80022ea:	f000 fa58 	bl	800279e <TIM_ITRx_SetConfig>
 80022ee:	e002      	b.n	80022f6 <HAL_TIM_ConfigClockSource+0x16e>
 80022f0:	bf00      	nop
 80022f2:	e000      	b.n	80022f6 <HAL_TIM_ConfigClockSource+0x16e>
 80022f4:	bf00      	nop
 80022f6:	687b      	ldr	r3, [r7, #4]
 80022f8:	2201      	movs	r2, #1
 80022fa:	f883 203d 	strb.w	r2, [r3, #61]	@ 0x3d
 80022fe:	687b      	ldr	r3, [r7, #4]
 8002300:	2200      	movs	r2, #0
 8002302:	f883 203c 	strb.w	r2, [r3, #60]	@ 0x3c
 8002306:	2300      	movs	r3, #0
 8002308:	4618      	mov	r0, r3
 800230a:	3710      	adds	r7, #16
 800230c:	46bd      	mov	sp, r7
 800230e:	bd80      	pop	{r7, pc}

08002310 <TIM_Base_SetConfig>:
 8002310:	b480      	push	{r7}
 8002312:	b085      	sub	sp, #20
 8002314:	af00      	add	r7, sp, #0
 8002316:	6078      	str	r0, [r7, #4]
 8002318:	6039      	str	r1, [r7, #0]
 800231a:	687b      	ldr	r3, [r7, #4]
 800231c:	681b      	ldr	r3, [r3, #0]
 800231e:	60fb      	str	r3, [r7, #12]
 8002320:	687b      	ldr	r3, [r7, #4]
 8002322:	4a29      	ldr	r2, [pc, #164]	@ (80023c8 <TIM_Base_SetConfig+0xb8>)
 8002324:	4293      	cmp	r3, r2
 8002326:	d00b      	beq.n	8002340 <TIM_Base_SetConfig+0x30>
 8002328:	687b      	ldr	r3, [r7, #4]
 800232a:	f1b3 4f80 	cmp.w	r3, #1073741824	@ 0x40000000
 800232e:	d007      	beq.n	8002340 <TIM_Base_SetConfig+0x30>
 8002330:	687b      	ldr	r3, [r7, #4]
 8002332:	4a26      	ldr	r2, [pc, #152]	@ (80023cc <TIM_Base_SetConfig+0xbc>)
 8002334:	4293      	cmp	r3, r2
 8002336:	d003      	beq.n	8002340 <TIM_Base_SetConfig+0x30>
 8002338:	687b      	ldr	r3, [r7, #4]
 800233a:	4a25      	ldr	r2, [pc, #148]	@ (80023d0 <TIM_Base_SetConfig+0xc0>)
 800233c:	4293      	cmp	r3, r2
 800233e:	d108      	bne.n	8002352 <TIM_Base_SetConfig+0x42>
 8002340:	68fb      	ldr	r3, [r7, #12]
 8002342:	f023 0370 	bic.w	r3, r3, #112	@ 0x70
 8002346:	60fb      	str	r3, [r7, #12]
 8002348:	683b      	ldr	r3, [r7, #0]
 800234a:	685b      	ldr	r3, [r3, #4]
 800234c:	68fa      	ldr	r2, [r7, #12]
 800234e:	4313      	orrs	r3, r2
 8002350:	60fb      	str	r3, [r7, #12]
 8002352:	687b      	ldr	r3, [r7, #4]
 8002354:	4a1c      	ldr	r2, [pc, #112]	@ (80023c8 <TIM_Base_SetConfig+0xb8>)
 8002356:	4293      	cmp	r3, r2
 8002358:	d00b      	beq.n	8002372 <TIM_Base_SetConfig+0x62>
 800235a:	687b      	ldr	r3, [r7, #4]
 800235c:	f1b3 4f80 	cmp.w	r3, #1073741824	@ 0x40000000
 8002360:	d007      	beq.n	8002372 <TIM_Base_SetConfig+0x62>
 8002362:	687b      	ldr	r3, [r7, #4]
 8002364:	4a19      	ldr	r2, [pc, #100]	@ (80023cc <TIM_Base_SetConfig+0xbc>)
 8002366:	4293      	cmp	r3, r2
 8002368:	d003      	beq.n	8002372 <TIM_Base_SetConfig+0x62>
 800236a:	687b      	ldr	r3, [r7, #4]
 800236c:	4a18      	ldr	r2, [pc, #96]	@ (80023d0 <TIM_Base_SetConfig+0xc0>)
 800236e:	4293      	cmp	r3, r2
 8002370:	d108      	bne.n	8002384 <TIM_Base_SetConfig+0x74>
 8002372:	68fb      	ldr	r3, [r7, #12]
 8002374:	f423 7340 	bic.w	r3, r3, #768	@ 0x300
 8002378:	60fb      	str	r3, [r7, #12]
 800237a:	683b      	ldr	r3, [r7, #0]
 800237c:	68db      	ldr	r3, [r3, #12]
 800237e:	68fa      	ldr	r2, [r7, #12]
 8002380:	4313      	orrs	r3, r2
 8002382:	60fb      	str	r3, [r7, #12]
 8002384:	68fb      	ldr	r3, [r7, #12]
 8002386:	f023 0280 	bic.w	r2, r3, #128	@ 0x80
 800238a:	683b      	ldr	r3, [r7, #0]
 800238c:	695b      	ldr	r3, [r3, #20]
 800238e:	4313      	orrs	r3, r2
 8002390:	60fb      	str	r3, [r7, #12]
 8002392:	687b      	ldr	r3, [r7, #4]
 8002394:	68fa      	ldr	r2, [r7, #12]
 8002396:	601a      	str	r2, [r3, #0]
 8002398:	683b      	ldr	r3, [r7, #0]
 800239a:	689a      	ldr	r2, [r3, #8]
 800239c:	687b      	ldr	r3, [r7, #4]
 800239e:	62da      	str	r2, [r3, #44]	@ 0x2c
 80023a0:	683b      	ldr	r3, [r7, #0]
 80023a2:	681a      	ldr	r2, [r3, #0]
 80023a4:	687b      	ldr	r3, [r7, #4]
 80023a6:	629a      	str	r2, [r3, #40]	@ 0x28
 80023a8:	687b      	ldr	r3, [r7, #4]
 80023aa:	4a07      	ldr	r2, [pc, #28]	@ (80023c8 <TIM_Base_SetConfig+0xb8>)
 80023ac:	4293      	cmp	r3, r2
 80023ae:	d103      	bne.n	80023b8 <TIM_Base_SetConfig+0xa8>
 80023b0:	683b      	ldr	r3, [r7, #0]
 80023b2:	691a      	ldr	r2, [r3, #16]
 80023b4:	687b      	ldr	r3, [r7, #4]
 80023b6:	631a      	str	r2, [r3, #48]	@ 0x30
 80023b8:	687b      	ldr	r3, [r7, #4]
 80023ba:	2201      	movs	r2, #1
 80023bc:	615a      	str	r2, [r3, #20]
 80023be:	bf00      	nop
 80023c0:	3714      	adds	r7, #20
 80023c2:	46bd      	mov	sp, r7
 80023c4:	bc80      	pop	{r7}
 80023c6:	4770      	bx	lr
 80023c8:	40012c00 	.word	0x40012c00
 80023cc:	40000400 	.word	0x40000400
 80023d0:	40000800 	.word	0x40000800

080023d4 <TIM_OC1_SetConfig>:
 80023d4:	b480      	push	{r7}
 80023d6:	b087      	sub	sp, #28
 80023d8:	af00      	add	r7, sp, #0
 80023da:	6078      	str	r0, [r7, #4]
 80023dc:	6039      	str	r1, [r7, #0]
 80023de:	687b      	ldr	r3, [r7, #4]
 80023e0:	6a1b      	ldr	r3, [r3, #32]
 80023e2:	f023 0201 	bic.w	r2, r3, #1
 80023e6:	687b      	ldr	r3, [r7, #4]
 80023e8:	621a      	str	r2, [r3, #32]
 80023ea:	687b      	ldr	r3, [r7, #4]
 80023ec:	6a1b      	ldr	r3, [r3, #32]
 80023ee:	617b      	str	r3, [r7, #20]
 80023f0:	687b      	ldr	r3, [r7, #4]
 80023f2:	685b      	ldr	r3, [r3, #4]
 80023f4:	613b      	str	r3, [r7, #16]
 80023f6:	687b      	ldr	r3, [r7, #4]
 80023f8:	699b      	ldr	r3, [r3, #24]
 80023fa:	60fb      	str	r3, [r7, #12]
 80023fc:	68fb      	ldr	r3, [r7, #12]
 80023fe:	f023 0370 	bic.w	r3, r3, #112	@ 0x70
 8002402:	60fb      	str	r3, [r7, #12]
 8002404:	68fb      	ldr	r3, [r7, #12]
 8002406:	f023 0303 	bic.w	r3, r3, #3
 800240a:	60fb      	str	r3, [r7, #12]
 800240c:	683b      	ldr	r3, [r7, #0]
 800240e:	681b      	ldr	r3, [r3, #0]
 8002410:	68fa      	ldr	r2, [r7, #12]
 8002412:	4313      	orrs	r3, r2
 8002414:	60fb      	str	r3, [r7, #12]
 8002416:	697b      	ldr	r3, [r7, #20]
 8002418:	f023 0302 	bic.w	r3, r3, #2
 800241c:	617b      	str	r3, [r7, #20]
 800241e:	683b      	ldr	r3, [r7, #0]
 8002420:	689b      	ldr	r3, [r3, #8]
 8002422:	697a      	ldr	r2, [r7, #20]
 8002424:	4313      	orrs	r3, r2
 8002426:	617b      	str	r3, [r7, #20]
 8002428:	687b      	ldr	r3, [r7, #4]
 800242a:	4a1c      	ldr	r2, [pc, #112]	@ (800249c <TIM_OC1_SetConfig+0xc8>)
 800242c:	4293      	cmp	r3, r2
 800242e:	d10c      	bne.n	800244a <TIM_OC1_SetConfig+0x76>
 8002430:	697b      	ldr	r3, [r7, #20]
 8002432:	f023 0308 	bic.w	r3, r3, #8
 8002436:	617b      	str	r3, [r7, #20]
 8002438:	683b      	ldr	r3, [r7, #0]
 800243a:	68db      	ldr	r3, [r3, #12]
 800243c:	697a      	ldr	r2, [r7, #20]
 800243e:	4313      	orrs	r3, r2
 8002440:	617b      	str	r3, [r7, #20]
 8002442:	697b      	ldr	r3, [r7, #20]
 8002444:	f023 0304 	bic.w	r3, r3, #4
 8002448:	617b      	str	r3, [r7, #20]
 800244a:	687b      	ldr	r3, [r7, #4]
 800244c:	4a13      	ldr	r2, [pc, #76]	@ (800249c <TIM_OC1_SetConfig+0xc8>)
 800244e:	4293      	cmp	r3, r2
 8002450:	d111      	bne.n	8002476 <TIM_OC1_SetConfig+0xa2>
 8002452:	693b      	ldr	r3, [r7, #16]
 8002454:	f423 7380 	bic.w	r3, r3, #256	@ 0x100
 8002458:	613b      	str	r3, [r7, #16]
 800245a:	693b      	ldr	r3, [r7, #16]
 800245c:	f423 7300 	bic.w	r3, r3, #512	@ 0x200
 8002460:	613b      	str	r3, [r7, #16]
 8002462:	683b      	ldr	r3, [r7, #0]
 8002464:	695b      	ldr	r3, [r3, #20]
 8002466:	693a      	ldr	r2, [r7, #16]
 8002468:	4313      	orrs	r3, r2
 800246a:	613b      	str	r3, [r7, #16]
 800246c:	683b      	ldr	r3, [r7, #0]
 800246e:	699b      	ldr	r3, [r3, #24]
 8002470:	693a      	ldr	r2, [r7, #16]
 8002472:	4313      	orrs	r3, r2
 8002474:	613b      	str	r3, [r7, #16]
 8002476:	687b      	ldr	r3, [r7, #4]
 8002478:	693a      	ldr	r2, [r7, #16]
 800247a:	605a      	str	r2, [r3, #4]
 800247c:	687b      	ldr	r3, [r7, #4]
 800247e:	68fa      	ldr	r2, [r7, #12]
 8002480:	619a      	str	r2, [r3, #24]
 8002482:	683b      	ldr	r3, [r7, #0]
 8002484:	685a      	ldr	r2, [r3, #4]
 8002486:	687b      	ldr	r3, [r7, #4]
 8002488:	635a      	str	r2, [r3, #52]	@ 0x34
 800248a:	687b      	ldr	r3, [r7, #4]
 800248c:	697a      	ldr	r2, [r7, #20]
 800248e:	621a      	str	r2, [r3, #32]
 8002490:	bf00      	nop
 8002492:	371c      	adds	r7, #28
 8002494:	46bd      	mov	sp, r7
 8002496:	bc80      	pop	{r7}
 8002498:	4770      	bx	lr
 800249a:	bf00      	nop
 800249c:	40012c00 	.word	0x40012c00

080024a0 <TIM_OC2_SetConfig>:
 80024a0:	b480      	push	{r7}
 80024a2:	b087      	sub	sp, #28
 80024a4:	af00      	add	r7, sp, #0
 80024a6:	6078      	str	r0, [r7, #4]
 80024a8:	6039      	str	r1, [r7, #0]
 80024aa:	687b      	ldr	r3, [r7, #4]
 80024ac:	6a1b      	ldr	r3, [r3, #32]
 80024ae:	f023 0210 	bic.w	r2, r3, #16
 80024b2:	687b      	ldr	r3, [r7, #4]
 80024b4:	621a      	str	r2, [r3, #32]
 80024b6:	687b      	ldr	r3, [r7, #4]
 80024b8:	6a1b      	ldr	r3, [r3, #32]
 80024ba:	617b      	str	r3, [r7, #20]
 80024bc:	687b      	ldr	r3, [r7, #4]
 80024be:	685b      	ldr	r3, [r3, #4]
 80024c0:	613b      	str	r3, [r7, #16]
 80024c2:	687b      	ldr	r3, [r7, #4]
 80024c4:	699b      	ldr	r3, [r3, #24]
 80024c6:	60fb      	str	r3, [r7, #12]
 80024c8:	68fb      	ldr	r3, [r7, #12]
 80024ca:	f423 43e0 	bic.w	r3, r3, #28672	@ 0x7000
 80024ce:	60fb      	str	r3, [r7, #12]
 80024d0:	68fb      	ldr	r3, [r7, #12]
 80024d2:	f423 7340 	bic.w	r3, r3, #768	@ 0x300
 80024d6:	60fb      	str	r3, [r7, #12]
 80024d8:	683b      	ldr	r3, [r7, #0]
 80024da:	681b      	ldr	r3, [r3, #0]
 80024dc:	021b      	lsls	r3, r3, #8
 80024de:	68fa      	ldr	r2, [r7, #12]
 80024e0:	4313      	orrs	r3, r2
 80024e2:	60fb      	str	r3, [r7, #12]
 80024e4:	697b      	ldr	r3, [r7, #20]
 80024e6:	f023 0320 	bic.w	r3, r3, #32
 80024ea:	617b      	str	r3, [r7, #20]
 80024ec:	683b      	ldr	r3, [r7, #0]
 80024ee:	689b      	ldr	r3, [r3, #8]
 80024f0:	011b      	lsls	r3, r3, #4
 80024f2:	697a      	ldr	r2, [r7, #20]
 80024f4:	4313      	orrs	r3, r2
 80024f6:	617b      	str	r3, [r7, #20]
 80024f8:	687b      	ldr	r3, [r7, #4]
 80024fa:	4a1d      	ldr	r2, [pc, #116]	@ (8002570 <TIM_OC2_SetConfig+0xd0>)
 80024fc:	4293      	cmp	r3, r2
 80024fe:	d10d      	bne.n	800251c <TIM_OC2_SetConfig+0x7c>
 8002500:	697b      	ldr	r3, [r7, #20]
 8002502:	f023 0380 	bic.w	r3, r3, #128	@ 0x80
 8002506:	617b      	str	r3, [r7, #20]
 8002508:	683b      	ldr	r3, [r7, #0]
 800250a:	68db      	ldr	r3, [r3, #12]
 800250c:	011b      	lsls	r3, r3, #4
 800250e:	697a      	ldr	r2, [r7, #20]
 8002510:	4313      	orrs	r3, r2
 8002512:	617b      	str	r3, [r7, #20]
 8002514:	697b      	ldr	r3, [r7, #20]
 8002516:	f023 0340 	bic.w	r3, r3, #64	@ 0x40
 800251a:	617b      	str	r3, [r7, #20]
 800251c:	687b      	ldr	r3, [r7, #4]
 800251e:	4a14      	ldr	r2, [pc, #80]	@ (8002570 <TIM_OC2_SetConfig+0xd0>)
 8002520:	4293      	cmp	r3, r2
 8002522:	d113      	bne.n	800254c <TIM_OC2_SetConfig+0xac>
 8002524:	693b      	ldr	r3, [r7, #16]
 8002526:	f423 6380 	bic.w	r3, r3, #1024	@ 0x400
 800252a:	613b      	str	r3, [r7, #16]
 800252c:	693b      	ldr	r3, [r7, #16]
 800252e:	f423 6300 	bic.w	r3, r3, #2048	@ 0x800
 8002532:	613b      	str	r3, [r7, #16]
 8002534:	683b      	ldr	r3, [r7, #0]
 8002536:	695b      	ldr	r3, [r3, #20]
 8002538:	009b      	lsls	r3, r3, #2
 800253a:	693a      	ldr	r2, [r7, #16]
 800253c:	4313      	orrs	r3, r2
 800253e:	613b      	str	r3, [r7, #16]
 8002540:	683b      	ldr	r3, [r7, #0]
 8002542:	699b      	ldr	r3, [r3, #24]
 8002544:	009b      	lsls	r3, r3, #2
 8002546:	693a      	ldr	r2, [r7, #16]
 8002548:	4313      	orrs	r3, r2
 800254a:	613b      	str	r3, [r7, #16]
 800254c:	687b      	ldr	r3, [r7, #4]
 800254e:	693a      	ldr	r2, [r7, #16]
 8002550:	605a      	str	r2, [r3, #4]
 8002552:	687b      	ldr	r3, [r7, #4]
 8002554:	68fa      	ldr	r2, [r7, #12]
 8002556:	619a      	str	r2, [r3, #24]
 8002558:	683b      	ldr	r3, [r7, #0]
 800255a:	685a      	ldr	r2, [r3, #4]
 800255c:	687b      	ldr	r3, [r7, #4]
 800255e:	639a      	str	r2, [r3, #56]	@ 0x38
 8002560:	687b      	ldr	r3, [r7, #4]
 8002562:	697a      	ldr	r2, [r7, #20]
 8002564:	621a      	str	r2, [r3, #32]
 8002566:	bf00      	nop
 8002568:	371c      	adds	r7, #28
 800256a:	46bd      	mov	sp, r7
 800256c:	bc80      	pop	{r7}
 800256e:	4770      	bx	lr
 8002570:	40012c00 	.word	0x40012c00

08002574 <TIM_OC3_SetConfig>:
 8002574:	b480      	push	{r7}
 8002576:	b087      	sub	sp, #28
 8002578:	af00      	add	r7, sp, #0
 800257a:	6078      	str	r0, [r7, #4]
 800257c:	6039      	str	r1, [r7, #0]
 800257e:	687b      	ldr	r3, [r7, #4]
 8002580:	6a1b      	ldr	r3, [r3, #32]
 8002582:	f423 7280 	bic.w	r2, r3, #256	@ 0x100
 8002586:	687b      	ldr	r3, [r7, #4]
 8002588:	621a      	str	r2, [r3, #32]
 800258a:	687b      	ldr	r3, [r7, #4]
 800258c:	6a1b      	ldr	r3, [r3, #32]
 800258e:	617b      	str	r3, [r7, #20]
 8002590:	687b      	ldr	r3, [r7, #4]
 8002592:	685b      	ldr	r3, [r3, #4]
 8002594:	613b      	str	r3, [r7, #16]
 8002596:	687b      	ldr	r3, [r7, #4]
 8002598:	69db      	ldr	r3, [r3, #28]
 800259a:	60fb      	str	r3, [r7, #12]
 800259c:	68fb      	ldr	r3, [r7, #12]
 800259e:	f023 0370 	bic.w	r3, r3, #112	@ 0x70
 80025a2:	60fb      	str	r3, [r7, #12]
 80025a4:	68fb      	ldr	r3, [r7, #12]
 80025a6:	f023 0303 	bic.w	r3, r3, #3
 80025aa:	60fb      	str	r3, [r7, #12]
 80025ac:	683b      	ldr	r3, [r7, #0]
 80025ae:	681b      	ldr	r3, [r3, #0]
 80025b0:	68fa      	ldr	r2, [r7, #12]
 80025b2:	4313      	orrs	r3, r2
 80025b4:	60fb      	str	r3, [r7, #12]
 80025b6:	697b      	ldr	r3, [r7, #20]
 80025b8:	f423 7300 	bic.w	r3, r3, #512	@ 0x200
 80025bc:	617b      	str	r3, [r7, #20]
 80025be:	683b      	ldr	r3, [r7, #0]
 80025c0:	689b      	ldr	r3, [r3, #8]
 80025c2:	021b      	lsls	r3, r3, #8
 80025c4:	697a      	ldr	r2, [r7, #20]
 80025c6:	4313      	orrs	r3, r2
 80025c8:	617b      	str	r3, [r7, #20]
 80025ca:	687b      	ldr	r3, [r7, #4]
 80025cc:	4a1d      	ldr	r2, [pc, #116]	@ (8002644 <TIM_OC3_SetConfig+0xd0>)
 80025ce:	4293      	cmp	r3, r2
 80025d0:	d10d      	bne.n	80025ee <TIM_OC3_SetConfig+0x7a>
 80025d2:	697b      	ldr	r3, [r7, #20]
 80025d4:	f423 6300 	bic.w	r3, r3, #2048	@ 0x800
 80025d8:	617b      	str	r3, [r7, #20]
 80025da:	683b      	ldr	r3, [r7, #0]
 80025dc:	68db      	ldr	r3, [r3, #12]
 80025de:	021b      	lsls	r3, r3, #8
 80025e0:	697a      	ldr	r2, [r7, #20]
 80025e2:	4313      	orrs	r3, r2
 80025e4:	617b      	str	r3, [r7, #20]
 80025e6:	697b      	ldr	r3, [r7, #20]
 80025e8:	f423 6380 	bic.w	r3, r3, #1024	@ 0x400
 80025ec:	617b      	str	r3, [r7, #20]
 80025ee:	687b      	ldr	r3, [r7, #4]
 80025f0:	4a14      	ldr	r2, [pc, #80]	@ (8002644 <TIM_OC3_SetConfig+0xd0>)
 80025f2:	4293      	cmp	r3, r2
 80025f4:	d113      	bne.n	800261e <TIM_OC3_SetConfig+0xaa>
 80025f6:	693b      	ldr	r3, [r7, #16]
 80025f8:	f423 5380 	bic.w	r3, r3, #4096	@ 0x1000
 80025fc:	613b      	str	r3, [r7, #16]
 80025fe:	693b      	ldr	r3, [r7, #16]
 8002600:	f423 5300 	bic.w	r3, r3, #8192	@ 0x2000
 8002604:	613b      	str	r3, [r7, #16]
 8002606:	683b      	ldr	r3, [r7, #0]
 8002608:	695b      	ldr	r3, [r3, #20]
 800260a:	011b      	lsls	r3, r3, #4
 800260c:	693a      	ldr	r2, [r7, #16]
 800260e:	4313      	orrs	r3, r2
 8002610:	613b      	str	r3, [r7, #16]
 8002612:	683b      	ldr	r3, [r7, #0]
 8002614:	699b      	ldr	r3, [r3, #24]
 8002616:	011b      	lsls	r3, r3, #4
 8002618:	693a      	ldr	r2, [r7, #16]
 800261a:	4313      	orrs	r3, r2
 800261c:	613b      	str	r3, [r7, #16]
 800261e:	687b      	ldr	r3, [r7, #4]
 8002620:	693a      	ldr	r2, [r7, #16]
 8002622:	605a      	str	r2, [r3, #4]
 8002624:	687b      	ldr	r3, [r7, #4]
 8002626:	68fa      	ldr	r2, [r7, #12]
 8002628:	61da      	str	r2, [r3, #28]
 800262a:	683b      	ldr	r3, [r7, #0]
 800262c:	685a      	ldr	r2, [r3, #4]
 800262e:	687b      	ldr	r3, [r7, #4]
 8002630:	63da      	str	r2, [r3, #60]	@ 0x3c
 8002632:	687b      	ldr	r3, [r7, #4]
 8002634:	697a      	ldr	r2, [r7, #20]
 8002636:	621a      	str	r2, [r3, #32]
 8002638:	bf00      	nop
 800263a:	371c      	adds	r7, #28
 800263c:	46bd      	mov	sp, r7
 800263e:	bc80      	pop	{r7}
 8002640:	4770      	bx	lr
 8002642:	bf00      	nop
 8002644:	40012c00 	.word	0x40012c00

08002648 <TIM_OC4_SetConfig>:
 8002648:	b480      	push	{r7}
 800264a:	b087      	sub	sp, #28
 800264c:	af00      	add	r7, sp, #0
 800264e:	6078      	str	r0, [r7, #4]
 8002650:	6039      	str	r1, [r7, #0]
 8002652:	687b      	ldr	r3, [r7, #4]
 8002654:	6a1b      	ldr	r3, [r3, #32]
 8002656:	f423 5280 	bic.w	r2, r3, #4096	@ 0x1000
 800265a:	687b      	ldr	r3, [r7, #4]
 800265c:	621a      	str	r2, [r3, #32]
 800265e:	687b      	ldr	r3, [r7, #4]
 8002660:	6a1b      	ldr	r3, [r3, #32]
 8002662:	613b      	str	r3, [r7, #16]
 8002664:	687b      	ldr	r3, [r7, #4]
 8002666:	685b      	ldr	r3, [r3, #4]
 8002668:	617b      	str	r3, [r7, #20]
 800266a:	687b      	ldr	r3, [r7, #4]
 800266c:	69db      	ldr	r3, [r3, #28]
 800266e:	60fb      	str	r3, [r7, #12]
 8002670:	68fb      	ldr	r3, [r7, #12]
 8002672:	f423 43e0 	bic.w	r3, r3, #28672	@ 0x7000
 8002676:	60fb      	str	r3, [r7, #12]
 8002678:	68fb      	ldr	r3, [r7, #12]
 800267a:	f423 7340 	bic.w	r3, r3, #768	@ 0x300
 800267e:	60fb      	str	r3, [r7, #12]
 8002680:	683b      	ldr	r3, [r7, #0]
 8002682:	681b      	ldr	r3, [r3, #0]
 8002684:	021b      	lsls	r3, r3, #8
 8002686:	68fa      	ldr	r2, [r7, #12]
 8002688:	4313      	orrs	r3, r2
 800268a:	60fb      	str	r3, [r7, #12]
 800268c:	693b      	ldr	r3, [r7, #16]
 800268e:	f423 5300 	bic.w	r3, r3, #8192	@ 0x2000
 8002692:	613b      	str	r3, [r7, #16]
 8002694:	683b      	ldr	r3, [r7, #0]
 8002696:	689b      	ldr	r3, [r3, #8]
 8002698:	031b      	lsls	r3, r3, #12
 800269a:	693a      	ldr	r2, [r7, #16]
 800269c:	4313      	orrs	r3, r2
 800269e:	613b      	str	r3, [r7, #16]
 80026a0:	687b      	ldr	r3, [r7, #4]
 80026a2:	4a0f      	ldr	r2, [pc, #60]	@ (80026e0 <TIM_OC4_SetConfig+0x98>)
 80026a4:	4293      	cmp	r3, r2
 80026a6:	d109      	bne.n	80026bc <TIM_OC4_SetConfig+0x74>
 80026a8:	697b      	ldr	r3, [r7, #20]
 80026aa:	f423 4380 	bic.w	r3, r3, #16384	@ 0x4000
 80026ae:	617b      	str	r3, [r7, #20]
 80026b0:	683b      	ldr	r3, [r7, #0]
 80026b2:	695b      	ldr	r3, [r3, #20]
 80026b4:	019b      	lsls	r3, r3, #6
 80026b6:	697a      	ldr	r2, [r7, #20]
 80026b8:	4313      	orrs	r3, r2
 80026ba:	617b      	str	r3, [r7, #20]
 80026bc:	687b      	ldr	r3, [r7, #4]
 80026be:	697a      	ldr	r2, [r7, #20]
 80026c0:	605a      	str	r2, [r3, #4]
 80026c2:	687b      	ldr	r3, [r7, #4]
 80026c4:	68fa      	ldr	r2, [r7, #12]
 80026c6:	61da      	str	r2, [r3, #28]
 80026c8:	683b      	ldr	r3, [r7, #0]
 80026ca:	685a      	ldr	r2, [r3, #4]
 80026cc:	687b      	ldr	r3, [r7, #4]
 80026ce:	641a      	str	r2, [r3, #64]	@ 0x40
 80026d0:	687b      	ldr	r3, [r7, #4]
 80026d2:	693a      	ldr	r2, [r7, #16]
 80026d4:	621a      	str	r2, [r3, #32]
 80026d6:	bf00      	nop
 80026d8:	371c      	adds	r7, #28
 80026da:	46bd      	mov	sp, r7
 80026dc:	bc80      	pop	{r7}
 80026de:	4770      	bx	lr
 80026e0:	40012c00 	.word	0x40012c00

080026e4 <TIM_TI1_ConfigInputStage>:
 80026e4:	b480      	push	{r7}
 80026e6:	b087      	sub	sp, #28
 80026e8:	af00      	add	r7, sp, #0
 80026ea:	60f8      	str	r0, [r7, #12]
 80026ec:	60b9      	str	r1, [r7, #8]
 80026ee:	607a      	str	r2, [r7, #4]
 80026f0:	68fb      	ldr	r3, [r7, #12]
 80026f2:	6a1b      	ldr	r3, [r3, #32]
 80026f4:	617b      	str	r3, [r7, #20]
 80026f6:	68fb      	ldr	r3, [r7, #12]
 80026f8:	6a1b      	ldr	r3, [r3, #32]
 80026fa:	f023 0201 	bic.w	r2, r3, #1
 80026fe:	68fb      	ldr	r3, [r7, #12]
 8002700:	621a      	str	r2, [r3, #32]
 8002702:	68fb      	ldr	r3, [r7, #12]
 8002704:	699b      	ldr	r3, [r3, #24]
 8002706:	613b      	str	r3, [r7, #16]
 8002708:	693b      	ldr	r3, [r7, #16]
 800270a:	f023 03f0 	bic.w	r3, r3, #240	@ 0xf0
 800270e:	613b      	str	r3, [r7, #16]
 8002710:	687b      	ldr	r3, [r7, #4]
 8002712:	011b      	lsls	r3, r3, #4
 8002714:	693a      	ldr	r2, [r7, #16]
 8002716:	4313      	orrs	r3, r2
 8002718:	613b      	str	r3, [r7, #16]
 800271a:	697b      	ldr	r3, [r7, #20]
 800271c:	f023 030a 	bic.w	r3, r3, #10
 8002720:	617b      	str	r3, [r7, #20]
 8002722:	697a      	ldr	r2, [r7, #20]
 8002724:	68bb      	ldr	r3, [r7, #8]
 8002726:	4313      	orrs	r3, r2
 8002728:	617b      	str	r3, [r7, #20]
 800272a:	68fb      	ldr	r3, [r7, #12]
 800272c:	693a      	ldr	r2, [r7, #16]
 800272e:	619a      	str	r2, [r3, #24]
 8002730:	68fb      	ldr	r3, [r7, #12]
 8002732:	697a      	ldr	r2, [r7, #20]
 8002734:	621a      	str	r2, [r3, #32]
 8002736:	bf00      	nop
 8002738:	371c      	adds	r7, #28
 800273a:	46bd      	mov	sp, r7
 800273c:	bc80      	pop	{r7}
 800273e:	4770      	bx	lr

08002740 <TIM_TI2_ConfigInputStage>:
 8002740:	b480      	push	{r7}
 8002742:	b087      	sub	sp, #28
 8002744:	af00      	add	r7, sp, #0
 8002746:	60f8      	str	r0, [r7, #12]
 8002748:	60b9      	str	r1, [r7, #8]
 800274a:	607a      	str	r2, [r7, #4]
 800274c:	68fb      	ldr	r3, [r7, #12]
 800274e:	6a1b      	ldr	r3, [r3, #32]
 8002750:	f023 0210 	bic.w	r2, r3, #16
 8002754:	68fb      	ldr	r3, [r7, #12]
 8002756:	621a      	str	r2, [r3, #32]
 8002758:	68fb      	ldr	r3, [r7, #12]
 800275a:	699b      	ldr	r3, [r3, #24]
 800275c:	617b      	str	r3, [r7, #20]
 800275e:	68fb      	ldr	r3, [r7, #12]
 8002760:	6a1b      	ldr	r3, [r3, #32]
 8002762:	613b      	str	r3, [r7, #16]
 8002764:	697b      	ldr	r3, [r7, #20]
 8002766:	f423 4370 	bic.w	r3, r3, #61440	@ 0xf000
 800276a:	617b      	str	r3, [r7, #20]
 800276c:	687b      	ldr	r3, [r7, #4]
 800276e:	031b      	lsls	r3, r3, #12
 8002770:	697a      	ldr	r2, [r7, #20]
 8002772:	4313      	orrs	r3, r2
 8002774:	617b      	str	r3, [r7, #20]
 8002776:	693b      	ldr	r3, [r7, #16]
 8002778:	f023 03a0 	bic.w	r3, r3, #160	@ 0xa0
 800277c:	613b      	str	r3, [r7, #16]
 800277e:	68bb      	ldr	r3, [r7, #8]
 8002780:	011b      	lsls	r3, r3, #4
 8002782:	693a      	ldr	r2, [r7, #16]
 8002784:	4313      	orrs	r3, r2
 8002786:	613b      	str	r3, [r7, #16]
 8002788:	68fb      	ldr	r3, [r7, #12]
 800278a:	697a      	ldr	r2, [r7, #20]
 800278c:	619a      	str	r2, [r3, #24]
 800278e:	68fb      	ldr	r3, [r7, #12]
 8002790:	693a      	ldr	r2, [r7, #16]
 8002792:	621a      	str	r2, [r3, #32]
 8002794:	bf00      	nop
 8002796:	371c      	adds	r7, #28
 8002798:	46bd      	mov	sp, r7
 800279a:	bc80      	pop	{r7}
 800279c:	4770      	bx	lr

0800279e <TIM_ITRx_SetConfig>:
 800279e:	b480      	push	{r7}
 80027a0:	b085      	sub	sp, #20
 80027a2:	af00      	add	r7, sp, #0
 80027a4:	6078      	str	r0, [r7, #4]
 80027a6:	6039      	str	r1, [r7, #0]
 80027a8:	687b      	ldr	r3, [r7, #4]
 80027aa:	689b      	ldr	r3, [r3, #8]
 80027ac:	60fb      	str	r3, [r7, #12]
 80027ae:	68fb      	ldr	r3, [r7, #12]
 80027b0:	f023 0370 	bic.w	r3, r3, #112	@ 0x70
 80027b4:	60fb      	str	r3, [r7, #12]
 80027b6:	683a      	ldr	r2, [r7, #0]
 80027b8:	68fb      	ldr	r3, [r7, #12]
 80027ba:	4313      	orrs	r3, r2
 80027bc:	f043 0307 	orr.w	r3, r3, #7
 80027c0:	60fb      	str	r3, [r7, #12]
 80027c2:	687b      	ldr	r3, [r7, #4]
 80027c4:	68fa      	ldr	r2, [r7, #12]
 80027c6:	609a      	str	r2, [r3, #8]
 80027c8:	bf00      	nop
 80027ca:	3714      	adds	r7, #20
 80027cc:	46bd      	mov	sp, r7
 80027ce:	bc80      	pop	{r7}
 80027d0:	4770      	bx	lr

080027d2 <TIM_ETR_SetConfig>:
 80027d2:	b480      	push	{r7}
 80027d4:	b087      	sub	sp, #28
 80027d6:	af00      	add	r7, sp, #0
 80027d8:	60f8      	str	r0, [r7, #12]
 80027da:	60b9      	str	r1, [r7, #8]
 80027dc:	607a      	str	r2, [r7, #4]
 80027de:	603b      	str	r3, [r7, #0]
 80027e0:	68fb      	ldr	r3, [r7, #12]
 80027e2:	689b      	ldr	r3, [r3, #8]
 80027e4:	617b      	str	r3, [r7, #20]
 80027e6:	697b      	ldr	r3, [r7, #20]
 80027e8:	f423 437f 	bic.w	r3, r3, #65280	@ 0xff00
 80027ec:	617b      	str	r3, [r7, #20]
 80027ee:	683b      	ldr	r3, [r7, #0]
 80027f0:	021a      	lsls	r2, r3, #8
 80027f2:	687b      	ldr	r3, [r7, #4]
 80027f4:	431a      	orrs	r2, r3
 80027f6:	68bb      	ldr	r3, [r7, #8]
 80027f8:	4313      	orrs	r3, r2
 80027fa:	697a      	ldr	r2, [r7, #20]
 80027fc:	4313      	orrs	r3, r2
 80027fe:	617b      	str	r3, [r7, #20]
 8002800:	68fb      	ldr	r3, [r7, #12]
 8002802:	697a      	ldr	r2, [r7, #20]
 8002804:	609a      	str	r2, [r3, #8]
 8002806:	bf00      	nop
 8002808:	371c      	adds	r7, #28
 800280a:	46bd      	mov	sp, r7
 800280c:	bc80      	pop	{r7}
 800280e:	4770      	bx	lr

08002810 <TIM_CCxChannelCmd>:
 8002810:	b480      	push	{r7}
 8002812:	b087      	sub	sp, #28
 8002814:	af00      	add	r7, sp, #0
 8002816:	60f8      	str	r0, [r7, #12]
 8002818:	60b9      	str	r1, [r7, #8]
 800281a:	607a      	str	r2, [r7, #4]
 800281c:	68bb      	ldr	r3, [r7, #8]
 800281e:	f003 031f 	and.w	r3, r3, #31
 8002822:	2201      	movs	r2, #1
 8002824:	fa02 f303 	lsl.w	r3, r2, r3
 8002828:	617b      	str	r3, [r7, #20]
 800282a:	68fb      	ldr	r3, [r7, #12]
 800282c:	6a1a      	ldr	r2, [r3, #32]
 800282e:	697b      	ldr	r3, [r7, #20]
 8002830:	43db      	mvns	r3, r3
 8002832:	401a      	ands	r2, r3
 8002834:	68fb      	ldr	r3, [r7, #12]
 8002836:	621a      	str	r2, [r3, #32]
 8002838:	68fb      	ldr	r3, [r7, #12]
 800283a:	6a1a      	ldr	r2, [r3, #32]
 800283c:	68bb      	ldr	r3, [r7, #8]
 800283e:	f003 031f 	and.w	r3, r3, #31
 8002842:	6879      	ldr	r1, [r7, #4]
 8002844:	fa01 f303 	lsl.w	r3, r1, r3
 8002848:	431a      	orrs	r2, r3
 800284a:	68fb      	ldr	r3, [r7, #12]
 800284c:	621a      	str	r2, [r3, #32]
 800284e:	bf00      	nop
 8002850:	371c      	adds	r7, #28
 8002852:	46bd      	mov	sp, r7
 8002854:	bc80      	pop	{r7}
 8002856:	4770      	bx	lr

08002858 <HAL_TIMEx_MasterConfigSynchronization>:
 8002858:	b480      	push	{r7}
 800285a:	b085      	sub	sp, #20
 800285c:	af00      	add	r7, sp, #0
 800285e:	6078      	str	r0, [r7, #4]
 8002860:	6039      	str	r1, [r7, #0]
 8002862:	687b      	ldr	r3, [r7, #4]
 8002864:	f893 303c 	ldrb.w	r3, [r3, #60]	@ 0x3c
 8002868:	2b01      	cmp	r3, #1
 800286a:	d101      	bne.n	8002870 <HAL_TIMEx_MasterConfigSynchronization+0x18>
 800286c:	2302      	movs	r3, #2
 800286e:	e046      	b.n	80028fe <HAL_TIMEx_MasterConfigSynchronization+0xa6>
 8002870:	687b      	ldr	r3, [r7, #4]
 8002872:	2201      	movs	r2, #1
 8002874:	f883 203c 	strb.w	r2, [r3, #60]	@ 0x3c
 8002878:	687b      	ldr	r3, [r7, #4]
 800287a:	2202      	movs	r2, #2
 800287c:	f883 203d 	strb.w	r2, [r3, #61]	@ 0x3d
 8002880:	687b      	ldr	r3, [r7, #4]
 8002882:	681b      	ldr	r3, [r3, #0]
 8002884:	685b      	ldr	r3, [r3, #4]
 8002886:	60fb      	str	r3, [r7, #12]
 8002888:	687b      	ldr	r3, [r7, #4]
 800288a:	681b      	ldr	r3, [r3, #0]
 800288c:	689b      	ldr	r3, [r3, #8]
 800288e:	60bb      	str	r3, [r7, #8]
 8002890:	68fb      	ldr	r3, [r7, #12]
 8002892:	f023 0370 	bic.w	r3, r3, #112	@ 0x70
 8002896:	60fb      	str	r3, [r7, #12]
 8002898:	683b      	ldr	r3, [r7, #0]
 800289a:	681b      	ldr	r3, [r3, #0]
 800289c:	68fa      	ldr	r2, [r7, #12]
 800289e:	4313      	orrs	r3, r2
 80028a0:	60fb      	str	r3, [r7, #12]
 80028a2:	687b      	ldr	r3, [r7, #4]
 80028a4:	681b      	ldr	r3, [r3, #0]
 80028a6:	68fa      	ldr	r2, [r7, #12]
 80028a8:	605a      	str	r2, [r3, #4]
 80028aa:	687b      	ldr	r3, [r7, #4]
 80028ac:	681b      	ldr	r3, [r3, #0]
 80028ae:	4a16      	ldr	r2, [pc, #88]	@ (8002908 <HAL_TIMEx_MasterConfigSynchronization+0xb0>)
 80028b0:	4293      	cmp	r3, r2
 80028b2:	d00e      	beq.n	80028d2 <HAL_TIMEx_MasterConfigSynchronization+0x7a>
 80028b4:	687b      	ldr	r3, [r7, #4]
 80028b6:	681b      	ldr	r3, [r3, #0]
 80028b8:	f1b3 4f80 	cmp.w	r3, #1073741824	@ 0x40000000
 80028bc:	d009      	beq.n	80028d2 <HAL_TIMEx_MasterConfigSynchronization+0x7a>
 80028be:	687b      	ldr	r3, [r7, #4]
 80028c0:	681b      	ldr	r3, [r3, #0]
 80028c2:	4a12      	ldr	r2, [pc, #72]	@ (800290c <HAL_TIMEx_MasterConfigSynchronization+0xb4>)
 80028c4:	4293      	cmp	r3, r2
 80028c6:	d004      	beq.n	80028d2 <HAL_TIMEx_MasterConfigSynchronization+0x7a>
 80028c8:	687b      	ldr	r3, [r7, #4]
 80028ca:	681b      	ldr	r3, [r3, #0]
 80028cc:	4a10      	ldr	r2, [pc, #64]	@ (8002910 <HAL_TIMEx_MasterConfigSynchronization+0xb8>)
 80028ce:	4293      	cmp	r3, r2
 80028d0:	d10c      	bne.n	80028ec <HAL_TIMEx_MasterConfigSynchronization+0x94>
 80028d2:	68bb      	ldr	r3, [r7, #8]
 80028d4:	f023 0380 	bic.w	r3, r3, #128	@ 0x80
 80028d8:	60bb      	str	r3, [r7, #8]
 80028da:	683b      	ldr	r3, [r7, #0]
 80028dc:	685b      	ldr	r3, [r3, #4]
 80028de:	68ba      	ldr	r2, [r7, #8]
 80028e0:	4313      	orrs	r3, r2
 80028e2:	60bb      	str	r3, [r7, #8]
 80028e4:	687b      	ldr	r3, [r7, #4]
 80028e6:	681b      	ldr	r3, [r3, #0]
 80028e8:	68ba      	ldr	r2, [r7, #8]
 80028ea:	609a      	str	r2, [r3, #8]
 80028ec:	687b      	ldr	r3, [r7, #4]
 80028ee:	2201      	movs	r2, #1
 80028f0:	f883 203d 	strb.w	r2, [r3, #61]	@ 0x3d
 80028f4:	687b      	ldr	r3, [r7, #4]
 80028f6:	2200      	movs	r2, #0
 80028f8:	f883 203c 	strb.w	r2, [r3, #60]	@ 0x3c
 80028fc:	2300      	movs	r3, #0
 80028fe:	4618      	mov	r0, r3
 8002900:	3714      	adds	r7, #20
 8002902:	46bd      	mov	sp, r7
 8002904:	bc80      	pop	{r7}
 8002906:	4770      	bx	lr
 8002908:	40012c00 	.word	0x40012c00
 800290c:	40000400 	.word	0x40000400
 8002910:	40000800 	.word	0x40000800

08002914 <HAL_TIMEx_ConfigBreakDeadTime>:
 8002914:	b480      	push	{r7}
 8002916:	b085      	sub	sp, #20
 8002918:	af00      	add	r7, sp, #0
 800291a:	6078      	str	r0, [r7, #4]
 800291c:	6039      	str	r1, [r7, #0]
 800291e:	2300      	movs	r3, #0
 8002920:	60fb      	str	r3, [r7, #12]
 8002922:	687b      	ldr	r3, [r7, #4]
 8002924:	f893 303c 	ldrb.w	r3, [r3, #60]	@ 0x3c
 8002928:	2b01      	cmp	r3, #1
 800292a:	d101      	bne.n	8002930 <HAL_TIMEx_ConfigBreakDeadTime+0x1c>
 800292c:	2302      	movs	r3, #2
 800292e:	e03d      	b.n	80029ac <HAL_TIMEx_ConfigBreakDeadTime+0x98>
 8002930:	687b      	ldr	r3, [r7, #4]
 8002932:	2201      	movs	r2, #1
 8002934:	f883 203c 	strb.w	r2, [r3, #60]	@ 0x3c
 8002938:	68fb      	ldr	r3, [r7, #12]
 800293a:	f023 02ff 	bic.w	r2, r3, #255	@ 0xff
 800293e:	683b      	ldr	r3, [r7, #0]
 8002940:	68db      	ldr	r3, [r3, #12]
 8002942:	4313      	orrs	r3, r2
 8002944:	60fb      	str	r3, [r7, #12]
 8002946:	68fb      	ldr	r3, [r7, #12]
 8002948:	f423 7240 	bic.w	r2, r3, #768	@ 0x300
 800294c:	683b      	ldr	r3, [r7, #0]
 800294e:	689b      	ldr	r3, [r3, #8]
 8002950:	4313      	orrs	r3, r2
 8002952:	60fb      	str	r3, [r7, #12]
 8002954:	68fb      	ldr	r3, [r7, #12]
 8002956:	f423 6280 	bic.w	r2, r3, #1024	@ 0x400
 800295a:	683b      	ldr	r3, [r7, #0]
 800295c:	685b      	ldr	r3, [r3, #4]
 800295e:	4313      	orrs	r3, r2
 8002960:	60fb      	str	r3, [r7, #12]
 8002962:	68fb      	ldr	r3, [r7, #12]
 8002964:	f423 6200 	bic.w	r2, r3, #2048	@ 0x800
 8002968:	683b      	ldr	r3, [r7, #0]
 800296a:	681b      	ldr	r3, [r3, #0]
 800296c:	4313      	orrs	r3, r2
 800296e:	60fb      	str	r3, [r7, #12]
 8002970:	68fb      	ldr	r3, [r7, #12]
 8002972:	f423 5280 	bic.w	r2, r3, #4096	@ 0x1000
 8002976:	683b      	ldr	r3, [r7, #0]
 8002978:	691b      	ldr	r3, [r3, #16]
 800297a:	4313      	orrs	r3, r2
 800297c:	60fb      	str	r3, [r7, #12]
 800297e:	68fb      	ldr	r3, [r7, #12]
 8002980:	f423 5200 	bic.w	r2, r3, #8192	@ 0x2000
 8002984:	683b      	ldr	r3, [r7, #0]
 8002986:	695b      	ldr	r3, [r3, #20]
 8002988:	4313      	orrs	r3, r2
 800298a:	60fb      	str	r3, [r7, #12]
 800298c:	68fb      	ldr	r3, [r7, #12]
 800298e:	f423 4280 	bic.w	r2, r3, #16384	@ 0x4000
 8002992:	683b      	ldr	r3, [r7, #0]
 8002994:	69db      	ldr	r3, [r3, #28]
 8002996:	4313      	orrs	r3, r2
 8002998:	60fb      	str	r3, [r7, #12]
 800299a:	687b      	ldr	r3, [r7, #4]
 800299c:	681b      	ldr	r3, [r3, #0]
 800299e:	68fa      	ldr	r2, [r7, #12]
 80029a0:	645a      	str	r2, [r3, #68]	@ 0x44
 80029a2:	687b      	ldr	r3, [r7, #4]
 80029a4:	2200      	movs	r2, #0
 80029a6:	f883 203c 	strb.w	r2, [r3, #60]	@ 0x3c
 80029aa:	2300      	movs	r3, #0
 80029ac:	4618      	mov	r0, r3
 80029ae:	3714      	adds	r7, #20
 80029b0:	46bd      	mov	sp, r7
 80029b2:	bc80      	pop	{r7}
 80029b4:	4770      	bx	lr

080029b6 <HAL_UART_Init>:
 80029b6:	b580      	push	{r7, lr}
 80029b8:	b082      	sub	sp, #8
 80029ba:	af00      	add	r7, sp, #0
 80029bc:	6078      	str	r0, [r7, #4]
 80029be:	687b      	ldr	r3, [r7, #4]
 80029c0:	2b00      	cmp	r3, #0
 80029c2:	d101      	bne.n	80029c8 <HAL_UART_Init+0x12>
 80029c4:	2301      	movs	r3, #1
 80029c6:	e03f      	b.n	8002a48 <HAL_UART_Init+0x92>
 80029c8:	687b      	ldr	r3, [r7, #4]
 80029ca:	f893 303d 	ldrb.w	r3, [r3, #61]	@ 0x3d
 80029ce:	b2db      	uxtb	r3, r3
 80029d0:	2b00      	cmp	r3, #0
 80029d2:	d106      	bne.n	80029e2 <HAL_UART_Init+0x2c>
 80029d4:	687b      	ldr	r3, [r7, #4]
 80029d6:	2200      	movs	r2, #0
 80029d8:	f883 203c 	strb.w	r2, [r3, #60]	@ 0x3c
 80029dc:	6878      	ldr	r0, [r7, #4]
 80029de:	f7fe fa07 	bl	8000df0 <HAL_UART_MspInit>
 80029e2:	687b      	ldr	r3, [r7, #4]
 80029e4:	2224      	movs	r2, #36	@ 0x24
 80029e6:	f883 203d 	strb.w	r2, [r3, #61]	@ 0x3d
 80029ea:	687b      	ldr	r3, [r7, #4]
 80029ec:	681b      	ldr	r3, [r3, #0]
 80029ee:	68da      	ldr	r2, [r3, #12]
 80029f0:	687b      	ldr	r3, [r7, #4]
 80029f2:	681b      	ldr	r3, [r3, #0]
 80029f4:	f422 5200 	bic.w	r2, r2, #8192	@ 0x2000
 80029f8:	60da      	str	r2, [r3, #12]
 80029fa:	6878      	ldr	r0, [r7, #4]
 80029fc:	f000 f9a6 	bl	8002d4c <UART_SetConfig>
 8002a00:	687b      	ldr	r3, [r7, #4]
 8002a02:	681b      	ldr	r3, [r3, #0]
 8002a04:	691a      	ldr	r2, [r3, #16]
 8002a06:	687b      	ldr	r3, [r7, #4]
 8002a08:	681b      	ldr	r3, [r3, #0]
 8002a0a:	f422 4290 	bic.w	r2, r2, #18432	@ 0x4800
 8002a0e:	611a      	str	r2, [r3, #16]
 8002a10:	687b      	ldr	r3, [r7, #4]
 8002a12:	681b      	ldr	r3, [r3, #0]
 8002a14:	695a      	ldr	r2, [r3, #20]
 8002a16:	687b      	ldr	r3, [r7, #4]
 8002a18:	681b      	ldr	r3, [r3, #0]
 8002a1a:	f022 022a 	bic.w	r2, r2, #42	@ 0x2a
 8002a1e:	615a      	str	r2, [r3, #20]
 8002a20:	687b      	ldr	r3, [r7, #4]
 8002a22:	681b      	ldr	r3, [r3, #0]
 8002a24:	68da      	ldr	r2, [r3, #12]
 8002a26:	687b      	ldr	r3, [r7, #4]
 8002a28:	681b      	ldr	r3, [r3, #0]
 8002a2a:	f442 5200 	orr.w	r2, r2, #8192	@ 0x2000
 8002a2e:	60da      	str	r2, [r3, #12]
 8002a30:	687b      	ldr	r3, [r7, #4]
 8002a32:	2200      	movs	r2, #0
 8002a34:	641a      	str	r2, [r3, #64]	@ 0x40
 8002a36:	687b      	ldr	r3, [r7, #4]
 8002a38:	2220      	movs	r2, #32
 8002a3a:	f883 203d 	strb.w	r2, [r3, #61]	@ 0x3d
 8002a3e:	687b      	ldr	r3, [r7, #4]
 8002a40:	2220      	movs	r2, #32
 8002a42:	f883 203e 	strb.w	r2, [r3, #62]	@ 0x3e
 8002a46:	2300      	movs	r3, #0
 8002a48:	4618      	mov	r0, r3
 8002a4a:	3708      	adds	r7, #8
 8002a4c:	46bd      	mov	sp, r7
 8002a4e:	bd80      	pop	{r7, pc}

08002a50 <HAL_UART_Transmit>:
 8002a50:	b580      	push	{r7, lr}
 8002a52:	b08a      	sub	sp, #40	@ 0x28
 8002a54:	af02      	add	r7, sp, #8
 8002a56:	60f8      	str	r0, [r7, #12]
 8002a58:	60b9      	str	r1, [r7, #8]
 8002a5a:	603b      	str	r3, [r7, #0]
 8002a5c:	4613      	mov	r3, r2
 8002a5e:	80fb      	strh	r3, [r7, #6]
 8002a60:	2300      	movs	r3, #0
 8002a62:	617b      	str	r3, [r7, #20]
 8002a64:	68fb      	ldr	r3, [r7, #12]
 8002a66:	f893 303d 	ldrb.w	r3, [r3, #61]	@ 0x3d
 8002a6a:	b2db      	uxtb	r3, r3
 8002a6c:	2b20      	cmp	r3, #32
 8002a6e:	d17c      	bne.n	8002b6a <HAL_UART_Transmit+0x11a>
 8002a70:	68bb      	ldr	r3, [r7, #8]
 8002a72:	2b00      	cmp	r3, #0
 8002a74:	d002      	beq.n	8002a7c <HAL_UART_Transmit+0x2c>
 8002a76:	88fb      	ldrh	r3, [r7, #6]
 8002a78:	2b00      	cmp	r3, #0
 8002a7a:	d101      	bne.n	8002a80 <HAL_UART_Transmit+0x30>
 8002a7c:	2301      	movs	r3, #1
 8002a7e:	e075      	b.n	8002b6c <HAL_UART_Transmit+0x11c>
 8002a80:	68fb      	ldr	r3, [r7, #12]
 8002a82:	f893 303c 	ldrb.w	r3, [r3, #60]	@ 0x3c
 8002a86:	2b01      	cmp	r3, #1
 8002a88:	d101      	bne.n	8002a8e <HAL_UART_Transmit+0x3e>
 8002a8a:	2302      	movs	r3, #2
 8002a8c:	e06e      	b.n	8002b6c <HAL_UART_Transmit+0x11c>
 8002a8e:	68fb      	ldr	r3, [r7, #12]
 8002a90:	2201      	movs	r2, #1
 8002a92:	f883 203c 	strb.w	r2, [r3, #60]	@ 0x3c
 8002a96:	68fb      	ldr	r3, [r7, #12]
 8002a98:	2200      	movs	r2, #0
 8002a9a:	641a      	str	r2, [r3, #64]	@ 0x40
 8002a9c:	68fb      	ldr	r3, [r7, #12]
 8002a9e:	2221      	movs	r2, #33	@ 0x21
 8002aa0:	f883 203d 	strb.w	r2, [r3, #61]	@ 0x3d
 8002aa4:	f7fe faa0 	bl	8000fe8 <HAL_GetTick>
 8002aa8:	6178      	str	r0, [r7, #20]
 8002aaa:	68fb      	ldr	r3, [r7, #12]
 8002aac:	88fa      	ldrh	r2, [r7, #6]
 8002aae:	849a      	strh	r2, [r3, #36]	@ 0x24
 8002ab0:	68fb      	ldr	r3, [r7, #12]
 8002ab2:	88fa      	ldrh	r2, [r7, #6]
 8002ab4:	84da      	strh	r2, [r3, #38]	@ 0x26
 8002ab6:	68fb      	ldr	r3, [r7, #12]
 8002ab8:	689b      	ldr	r3, [r3, #8]
 8002aba:	f5b3 5f80 	cmp.w	r3, #4096	@ 0x1000
 8002abe:	d108      	bne.n	8002ad2 <HAL_UART_Transmit+0x82>
 8002ac0:	68fb      	ldr	r3, [r7, #12]
 8002ac2:	691b      	ldr	r3, [r3, #16]
 8002ac4:	2b00      	cmp	r3, #0
 8002ac6:	d104      	bne.n	8002ad2 <HAL_UART_Transmit+0x82>
 8002ac8:	2300      	movs	r3, #0
 8002aca:	61fb      	str	r3, [r7, #28]
 8002acc:	68bb      	ldr	r3, [r7, #8]
 8002ace:	61bb      	str	r3, [r7, #24]
 8002ad0:	e003      	b.n	8002ada <HAL_UART_Transmit+0x8a>
 8002ad2:	68bb      	ldr	r3, [r7, #8]
 8002ad4:	61fb      	str	r3, [r7, #28]
 8002ad6:	2300      	movs	r3, #0
 8002ad8:	61bb      	str	r3, [r7, #24]
 8002ada:	68fb      	ldr	r3, [r7, #12]
 8002adc:	2200      	movs	r2, #0
 8002ade:	f883 203c 	strb.w	r2, [r3, #60]	@ 0x3c
 8002ae2:	e02a      	b.n	8002b3a <HAL_UART_Transmit+0xea>
 8002ae4:	683b      	ldr	r3, [r7, #0]
 8002ae6:	9300      	str	r3, [sp, #0]
 8002ae8:	697b      	ldr	r3, [r7, #20]
 8002aea:	2200      	movs	r2, #0
 8002aec:	2180      	movs	r1, #128	@ 0x80
 8002aee:	68f8      	ldr	r0, [r7, #12]
 8002af0:	f000 f8e2 	bl	8002cb8 <UART_WaitOnFlagUntilTimeout>
 8002af4:	4603      	mov	r3, r0
 8002af6:	2b00      	cmp	r3, #0
 8002af8:	d001      	beq.n	8002afe <HAL_UART_Transmit+0xae>
 8002afa:	2303      	movs	r3, #3
 8002afc:	e036      	b.n	8002b6c <HAL_UART_Transmit+0x11c>
 8002afe:	69fb      	ldr	r3, [r7, #28]
 8002b00:	2b00      	cmp	r3, #0
 8002b02:	d10b      	bne.n	8002b1c <HAL_UART_Transmit+0xcc>
 8002b04:	69bb      	ldr	r3, [r7, #24]
 8002b06:	881b      	ldrh	r3, [r3, #0]
 8002b08:	461a      	mov	r2, r3
 8002b0a:	68fb      	ldr	r3, [r7, #12]
 8002b0c:	681b      	ldr	r3, [r3, #0]
 8002b0e:	f3c2 0208 	ubfx	r2, r2, #0, #9
 8002b12:	605a      	str	r2, [r3, #4]
 8002b14:	69bb      	ldr	r3, [r7, #24]
 8002b16:	3302      	adds	r3, #2
 8002b18:	61bb      	str	r3, [r7, #24]
 8002b1a:	e007      	b.n	8002b2c <HAL_UART_Transmit+0xdc>
 8002b1c:	69fb      	ldr	r3, [r7, #28]
 8002b1e:	781a      	ldrb	r2, [r3, #0]
 8002b20:	68fb      	ldr	r3, [r7, #12]
 8002b22:	681b      	ldr	r3, [r3, #0]
 8002b24:	605a      	str	r2, [r3, #4]
 8002b26:	69fb      	ldr	r3, [r7, #28]
 8002b28:	3301      	adds	r3, #1
 8002b2a:	61fb      	str	r3, [r7, #28]
 8002b2c:	68fb      	ldr	r3, [r7, #12]
 8002b2e:	8cdb      	ldrh	r3, [r3, #38]	@ 0x26
 8002b30:	b29b      	uxth	r3, r3
 8002b32:	3b01      	subs	r3, #1
 8002b34:	b29a      	uxth	r2, r3
 8002b36:	68fb      	ldr	r3, [r7, #12]
 8002b38:	84da      	strh	r2, [r3, #38]	@ 0x26
 8002b3a:	68fb      	ldr	r3, [r7, #12]
 8002b3c:	8cdb      	ldrh	r3, [r3, #38]	@ 0x26
 8002b3e:	b29b      	uxth	r3, r3
 8002b40:	2b00      	cmp	r3, #0
 8002b42:	d1cf      	bne.n	8002ae4 <HAL_UART_Transmit+0x94>
 8002b44:	683b      	ldr	r3, [r7, #0]
 8002b46:	9300      	str	r3, [sp, #0]
 8002b48:	697b      	ldr	r3, [r7, #20]
 8002b4a:	2200      	movs	r2, #0
 8002b4c:	2140      	movs	r1, #64	@ 0x40
 8002b4e:	68f8      	ldr	r0, [r7, #12]
 8002b50:	f000 f8b2 	bl	8002cb8 <UART_WaitOnFlagUntilTimeout>
 8002b54:	4603      	mov	r3, r0
 8002b56:	2b00      	cmp	r3, #0
 8002b58:	d001      	beq.n	8002b5e <HAL_UART_Transmit+0x10e>
 8002b5a:	2303      	movs	r3, #3
 8002b5c:	e006      	b.n	8002b6c <HAL_UART_Transmit+0x11c>
 8002b5e:	68fb      	ldr	r3, [r7, #12]
 8002b60:	2220      	movs	r2, #32
 8002b62:	f883 203d 	strb.w	r2, [r3, #61]	@ 0x3d
 8002b66:	2300      	movs	r3, #0
 8002b68:	e000      	b.n	8002b6c <HAL_UART_Transmit+0x11c>
 8002b6a:	2302      	movs	r3, #2
 8002b6c:	4618      	mov	r0, r3
 8002b6e:	3720      	adds	r7, #32
 8002b70:	46bd      	mov	sp, r7
 8002b72:	bd80      	pop	{r7, pc}

08002b74 <HAL_UART_Receive>:
 8002b74:	b580      	push	{r7, lr}
 8002b76:	b08a      	sub	sp, #40	@ 0x28
 8002b78:	af02      	add	r7, sp, #8
 8002b7a:	60f8      	str	r0, [r7, #12]
 8002b7c:	60b9      	str	r1, [r7, #8]
 8002b7e:	603b      	str	r3, [r7, #0]
 8002b80:	4613      	mov	r3, r2
 8002b82:	80fb      	strh	r3, [r7, #6]
 8002b84:	2300      	movs	r3, #0
 8002b86:	617b      	str	r3, [r7, #20]
 8002b88:	68fb      	ldr	r3, [r7, #12]
 8002b8a:	f893 303e 	ldrb.w	r3, [r3, #62]	@ 0x3e
 8002b8e:	b2db      	uxtb	r3, r3
 8002b90:	2b20      	cmp	r3, #32
 8002b92:	f040 808c 	bne.w	8002cae <HAL_UART_Receive+0x13a>
 8002b96:	68bb      	ldr	r3, [r7, #8]
 8002b98:	2b00      	cmp	r3, #0
 8002b9a:	d002      	beq.n	8002ba2 <HAL_UART_Receive+0x2e>
 8002b9c:	88fb      	ldrh	r3, [r7, #6]
 8002b9e:	2b00      	cmp	r3, #0
 8002ba0:	d101      	bne.n	8002ba6 <HAL_UART_Receive+0x32>
 8002ba2:	2301      	movs	r3, #1
 8002ba4:	e084      	b.n	8002cb0 <HAL_UART_Receive+0x13c>
 8002ba6:	68fb      	ldr	r3, [r7, #12]
 8002ba8:	f893 303c 	ldrb.w	r3, [r3, #60]	@ 0x3c
 8002bac:	2b01      	cmp	r3, #1
 8002bae:	d101      	bne.n	8002bb4 <HAL_UART_Receive+0x40>
 8002bb0:	2302      	movs	r3, #2
 8002bb2:	e07d      	b.n	8002cb0 <HAL_UART_Receive+0x13c>
 8002bb4:	68fb      	ldr	r3, [r7, #12]
 8002bb6:	2201      	movs	r2, #1
 8002bb8:	f883 203c 	strb.w	r2, [r3, #60]	@ 0x3c
 8002bbc:	68fb      	ldr	r3, [r7, #12]
 8002bbe:	2200      	movs	r2, #0
 8002bc0:	641a      	str	r2, [r3, #64]	@ 0x40
 8002bc2:	68fb      	ldr	r3, [r7, #12]
 8002bc4:	2222      	movs	r2, #34	@ 0x22
 8002bc6:	f883 203e 	strb.w	r2, [r3, #62]	@ 0x3e
 8002bca:	68fb      	ldr	r3, [r7, #12]
 8002bcc:	2200      	movs	r2, #0
 8002bce:	631a      	str	r2, [r3, #48]	@ 0x30
 8002bd0:	f7fe fa0a 	bl	8000fe8 <HAL_GetTick>
 8002bd4:	6178      	str	r0, [r7, #20]
 8002bd6:	68fb      	ldr	r3, [r7, #12]
 8002bd8:	88fa      	ldrh	r2, [r7, #6]
 8002bda:	859a      	strh	r2, [r3, #44]	@ 0x2c
 8002bdc:	68fb      	ldr	r3, [r7, #12]
 8002bde:	88fa      	ldrh	r2, [r7, #6]
 8002be0:	85da      	strh	r2, [r3, #46]	@ 0x2e
 8002be2:	68fb      	ldr	r3, [r7, #12]
 8002be4:	689b      	ldr	r3, [r3, #8]
 8002be6:	f5b3 5f80 	cmp.w	r3, #4096	@ 0x1000
 8002bea:	d108      	bne.n	8002bfe <HAL_UART_Receive+0x8a>
 8002bec:	68fb      	ldr	r3, [r7, #12]
 8002bee:	691b      	ldr	r3, [r3, #16]
 8002bf0:	2b00      	cmp	r3, #0
 8002bf2:	d104      	bne.n	8002bfe <HAL_UART_Receive+0x8a>
 8002bf4:	2300      	movs	r3, #0
 8002bf6:	61fb      	str	r3, [r7, #28]
 8002bf8:	68bb      	ldr	r3, [r7, #8]
 8002bfa:	61bb      	str	r3, [r7, #24]
 8002bfc:	e003      	b.n	8002c06 <HAL_UART_Receive+0x92>
 8002bfe:	68bb      	ldr	r3, [r7, #8]
 8002c00:	61fb      	str	r3, [r7, #28]
 8002c02:	2300      	movs	r3, #0
 8002c04:	61bb      	str	r3, [r7, #24]
 8002c06:	68fb      	ldr	r3, [r7, #12]
 8002c08:	2200      	movs	r2, #0
 8002c0a:	f883 203c 	strb.w	r2, [r3, #60]	@ 0x3c
 8002c0e:	e043      	b.n	8002c98 <HAL_UART_Receive+0x124>
 8002c10:	683b      	ldr	r3, [r7, #0]
 8002c12:	9300      	str	r3, [sp, #0]
 8002c14:	697b      	ldr	r3, [r7, #20]
 8002c16:	2200      	movs	r2, #0
 8002c18:	2120      	movs	r1, #32
 8002c1a:	68f8      	ldr	r0, [r7, #12]
 8002c1c:	f000 f84c 	bl	8002cb8 <UART_WaitOnFlagUntilTimeout>
 8002c20:	4603      	mov	r3, r0
 8002c22:	2b00      	cmp	r3, #0
 8002c24:	d001      	beq.n	8002c2a <HAL_UART_Receive+0xb6>
 8002c26:	2303      	movs	r3, #3
 8002c28:	e042      	b.n	8002cb0 <HAL_UART_Receive+0x13c>
 8002c2a:	69fb      	ldr	r3, [r7, #28]
 8002c2c:	2b00      	cmp	r3, #0
 8002c2e:	d10c      	bne.n	8002c4a <HAL_UART_Receive+0xd6>
 8002c30:	68fb      	ldr	r3, [r7, #12]
 8002c32:	681b      	ldr	r3, [r3, #0]
 8002c34:	685b      	ldr	r3, [r3, #4]
 8002c36:	b29b      	uxth	r3, r3
 8002c38:	f3c3 0308 	ubfx	r3, r3, #0, #9
 8002c3c:	b29a      	uxth	r2, r3
 8002c3e:	69bb      	ldr	r3, [r7, #24]
 8002c40:	801a      	strh	r2, [r3, #0]
 8002c42:	69bb      	ldr	r3, [r7, #24]
 8002c44:	3302      	adds	r3, #2
 8002c46:	61bb      	str	r3, [r7, #24]
 8002c48:	e01f      	b.n	8002c8a <HAL_UART_Receive+0x116>
 8002c4a:	68fb      	ldr	r3, [r7, #12]
 8002c4c:	689b      	ldr	r3, [r3, #8]
 8002c4e:	f5b3 5f80 	cmp.w	r3, #4096	@ 0x1000
 8002c52:	d007      	beq.n	8002c64 <HAL_UART_Receive+0xf0>
 8002c54:	68fb      	ldr	r3, [r7, #12]
 8002c56:	689b      	ldr	r3, [r3, #8]
 8002c58:	2b00      	cmp	r3, #0
 8002c5a:	d10a      	bne.n	8002c72 <HAL_UART_Receive+0xfe>
 8002c5c:	68fb      	ldr	r3, [r7, #12]
 8002c5e:	691b      	ldr	r3, [r3, #16]
 8002c60:	2b00      	cmp	r3, #0
 8002c62:	d106      	bne.n	8002c72 <HAL_UART_Receive+0xfe>
 8002c64:	68fb      	ldr	r3, [r7, #12]
 8002c66:	681b      	ldr	r3, [r3, #0]
 8002c68:	685b      	ldr	r3, [r3, #4]
 8002c6a:	b2da      	uxtb	r2, r3
 8002c6c:	69fb      	ldr	r3, [r7, #28]
 8002c6e:	701a      	strb	r2, [r3, #0]
 8002c70:	e008      	b.n	8002c84 <HAL_UART_Receive+0x110>
 8002c72:	68fb      	ldr	r3, [r7, #12]
 8002c74:	681b      	ldr	r3, [r3, #0]
 8002c76:	685b      	ldr	r3, [r3, #4]
 8002c78:	b2db      	uxtb	r3, r3
 8002c7a:	f003 037f 	and.w	r3, r3, #127	@ 0x7f
 8002c7e:	b2da      	uxtb	r2, r3
 8002c80:	69fb      	ldr	r3, [r7, #28]
 8002c82:	701a      	strb	r2, [r3, #0]
 8002c84:	69fb      	ldr	r3, [r7, #28]
 8002c86:	3301      	adds	r3, #1
 8002c88:	61fb      	str	r3, [r7, #28]
 8002c8a:	68fb      	ldr	r3, [r7, #12]
 8002c8c:	8ddb      	ldrh	r3, [r3, #46]	@ 0x2e
 8002c8e:	b29b      	uxth	r3, r3
 8002c90:	3b01      	subs	r3, #1
 8002c92:	b29a      	uxth	r2, r3
 8002c94:	68fb      	ldr	r3, [r7, #12]
 8002c96:	85da      	strh	r2, [r3, #46]	@ 0x2e
 8002c98:	68fb      	ldr	r3, [r7, #12]
 8002c9a:	8ddb      	ldrh	r3, [r3, #46]	@ 0x2e
 8002c9c:	b29b      	uxth	r3, r3
 8002c9e:	2b00      	cmp	r3, #0
 8002ca0:	d1b6      	bne.n	8002c10 <HAL_UART_Receive+0x9c>
 8002ca2:	68fb      	ldr	r3, [r7, #12]
 8002ca4:	2220      	movs	r2, #32
 8002ca6:	f883 203e 	strb.w	r2, [r3, #62]	@ 0x3e
 8002caa:	2300      	movs	r3, #0
 8002cac:	e000      	b.n	8002cb0 <HAL_UART_Receive+0x13c>
 8002cae:	2302      	movs	r3, #2
 8002cb0:	4618      	mov	r0, r3
 8002cb2:	3720      	adds	r7, #32
 8002cb4:	46bd      	mov	sp, r7
 8002cb6:	bd80      	pop	{r7, pc}

08002cb8 <UART_WaitOnFlagUntilTimeout>:
 8002cb8:	b580      	push	{r7, lr}
 8002cba:	b084      	sub	sp, #16
 8002cbc:	af00      	add	r7, sp, #0
 8002cbe:	60f8      	str	r0, [r7, #12]
 8002cc0:	60b9      	str	r1, [r7, #8]
 8002cc2:	603b      	str	r3, [r7, #0]
 8002cc4:	4613      	mov	r3, r2
 8002cc6:	71fb      	strb	r3, [r7, #7]
 8002cc8:	e02c      	b.n	8002d24 <UART_WaitOnFlagUntilTimeout+0x6c>
 8002cca:	69bb      	ldr	r3, [r7, #24]
 8002ccc:	f1b3 3fff 	cmp.w	r3, #4294967295
 8002cd0:	d028      	beq.n	8002d24 <UART_WaitOnFlagUntilTimeout+0x6c>
 8002cd2:	69bb      	ldr	r3, [r7, #24]
 8002cd4:	2b00      	cmp	r3, #0
 8002cd6:	d007      	beq.n	8002ce8 <UART_WaitOnFlagUntilTimeout+0x30>
 8002cd8:	f7fe f986 	bl	8000fe8 <HAL_GetTick>
 8002cdc:	4602      	mov	r2, r0
 8002cde:	683b      	ldr	r3, [r7, #0]
 8002ce0:	1ad3      	subs	r3, r2, r3
 8002ce2:	69ba      	ldr	r2, [r7, #24]
 8002ce4:	429a      	cmp	r2, r3
 8002ce6:	d21d      	bcs.n	8002d24 <UART_WaitOnFlagUntilTimeout+0x6c>
 8002ce8:	68fb      	ldr	r3, [r7, #12]
 8002cea:	681b      	ldr	r3, [r3, #0]
 8002cec:	68da      	ldr	r2, [r3, #12]
 8002cee:	68fb      	ldr	r3, [r7, #12]
 8002cf0:	681b      	ldr	r3, [r3, #0]
 8002cf2:	f422 72d0 	bic.w	r2, r2, #416	@ 0x1a0
 8002cf6:	60da      	str	r2, [r3, #12]
 8002cf8:	68fb      	ldr	r3, [r7, #12]
 8002cfa:	681b      	ldr	r3, [r3, #0]
 8002cfc:	695a      	ldr	r2, [r3, #20]
 8002cfe:	68fb      	ldr	r3, [r7, #12]
 8002d00:	681b      	ldr	r3, [r3, #0]
 8002d02:	f022 0201 	bic.w	r2, r2, #1
 8002d06:	615a      	str	r2, [r3, #20]
 8002d08:	68fb      	ldr	r3, [r7, #12]
 8002d0a:	2220      	movs	r2, #32
 8002d0c:	f883 203d 	strb.w	r2, [r3, #61]	@ 0x3d
 8002d10:	68fb      	ldr	r3, [r7, #12]
 8002d12:	2220      	movs	r2, #32
 8002d14:	f883 203e 	strb.w	r2, [r3, #62]	@ 0x3e
 8002d18:	68fb      	ldr	r3, [r7, #12]
 8002d1a:	2200      	movs	r2, #0
 8002d1c:	f883 203c 	strb.w	r2, [r3, #60]	@ 0x3c
 8002d20:	2303      	movs	r3, #3
 8002d22:	e00f      	b.n	8002d44 <UART_WaitOnFlagUntilTimeout+0x8c>
 8002d24:	68fb      	ldr	r3, [r7, #12]
 8002d26:	681b      	ldr	r3, [r3, #0]
 8002d28:	681a      	ldr	r2, [r3, #0]
 8002d2a:	68bb      	ldr	r3, [r7, #8]
 8002d2c:	4013      	ands	r3, r2
 8002d2e:	68ba      	ldr	r2, [r7, #8]
 8002d30:	429a      	cmp	r2, r3
 8002d32:	bf0c      	ite	eq
 8002d34:	2301      	moveq	r3, #1
 8002d36:	2300      	movne	r3, #0
 8002d38:	b2db      	uxtb	r3, r3
 8002d3a:	461a      	mov	r2, r3
 8002d3c:	79fb      	ldrb	r3, [r7, #7]
 8002d3e:	429a      	cmp	r2, r3
 8002d40:	d0c3      	beq.n	8002cca <UART_WaitOnFlagUntilTimeout+0x12>
 8002d42:	2300      	movs	r3, #0
 8002d44:	4618      	mov	r0, r3
 8002d46:	3710      	adds	r7, #16
 8002d48:	46bd      	mov	sp, r7
 8002d4a:	bd80      	pop	{r7, pc}

08002d4c <UART_SetConfig>:
 8002d4c:	b580      	push	{r7, lr}
 8002d4e:	b084      	sub	sp, #16
 8002d50:	af00      	add	r7, sp, #0
 8002d52:	6078      	str	r0, [r7, #4]
 8002d54:	687b      	ldr	r3, [r7, #4]
 8002d56:	681b      	ldr	r3, [r3, #0]
 8002d58:	691b      	ldr	r3, [r3, #16]
 8002d5a:	f423 5140 	bic.w	r1, r3, #12288	@ 0x3000
 8002d5e:	687b      	ldr	r3, [r7, #4]
 8002d60:	68da      	ldr	r2, [r3, #12]
 8002d62:	687b      	ldr	r3, [r7, #4]
 8002d64:	681b      	ldr	r3, [r3, #0]
 8002d66:	430a      	orrs	r2, r1
 8002d68:	611a      	str	r2, [r3, #16]
 8002d6a:	687b      	ldr	r3, [r7, #4]
 8002d6c:	689a      	ldr	r2, [r3, #8]
 8002d6e:	687b      	ldr	r3, [r7, #4]
 8002d70:	691b      	ldr	r3, [r3, #16]
 8002d72:	431a      	orrs	r2, r3
 8002d74:	687b      	ldr	r3, [r7, #4]
 8002d76:	695b      	ldr	r3, [r3, #20]
 8002d78:	4313      	orrs	r3, r2
 8002d7a:	60bb      	str	r3, [r7, #8]
 8002d7c:	687b      	ldr	r3, [r7, #4]
 8002d7e:	681b      	ldr	r3, [r3, #0]
 8002d80:	68db      	ldr	r3, [r3, #12]
 8002d82:	f423 53b0 	bic.w	r3, r3, #5632	@ 0x1600
 8002d86:	f023 030c 	bic.w	r3, r3, #12
 8002d8a:	687a      	ldr	r2, [r7, #4]
 8002d8c:	6812      	ldr	r2, [r2, #0]
 8002d8e:	68b9      	ldr	r1, [r7, #8]
 8002d90:	430b      	orrs	r3, r1
 8002d92:	60d3      	str	r3, [r2, #12]
 8002d94:	687b      	ldr	r3, [r7, #4]
 8002d96:	681b      	ldr	r3, [r3, #0]
 8002d98:	695b      	ldr	r3, [r3, #20]
 8002d9a:	f423 7140 	bic.w	r1, r3, #768	@ 0x300
 8002d9e:	687b      	ldr	r3, [r7, #4]
 8002da0:	699a      	ldr	r2, [r3, #24]
 8002da2:	687b      	ldr	r3, [r7, #4]
 8002da4:	681b      	ldr	r3, [r3, #0]
 8002da6:	430a      	orrs	r2, r1
 8002da8:	615a      	str	r2, [r3, #20]
 8002daa:	687b      	ldr	r3, [r7, #4]
 8002dac:	681b      	ldr	r3, [r3, #0]
 8002dae:	4a2c      	ldr	r2, [pc, #176]	@ (8002e60 <UART_SetConfig+0x114>)
 8002db0:	4293      	cmp	r3, r2
 8002db2:	d103      	bne.n	8002dbc <UART_SetConfig+0x70>
 8002db4:	f7fe ffae 	bl	8001d14 <HAL_RCC_GetPCLK2Freq>
 8002db8:	60f8      	str	r0, [r7, #12]
 8002dba:	e002      	b.n	8002dc2 <UART_SetConfig+0x76>
 8002dbc:	f7fe ff96 	bl	8001cec <HAL_RCC_GetPCLK1Freq>
 8002dc0:	60f8      	str	r0, [r7, #12]
 8002dc2:	68fa      	ldr	r2, [r7, #12]
 8002dc4:	4613      	mov	r3, r2
 8002dc6:	009b      	lsls	r3, r3, #2
 8002dc8:	4413      	add	r3, r2
 8002dca:	009a      	lsls	r2, r3, #2
 8002dcc:	441a      	add	r2, r3
 8002dce:	687b      	ldr	r3, [r7, #4]
 8002dd0:	685b      	ldr	r3, [r3, #4]
 8002dd2:	009b      	lsls	r3, r3, #2
 8002dd4:	fbb2 f3f3 	udiv	r3, r2, r3
 8002dd8:	4a22      	ldr	r2, [pc, #136]	@ (8002e64 <UART_SetConfig+0x118>)
 8002dda:	fba2 2303 	umull	r2, r3, r2, r3
 8002dde:	095b      	lsrs	r3, r3, #5
 8002de0:	0119      	lsls	r1, r3, #4
 8002de2:	68fa      	ldr	r2, [r7, #12]
 8002de4:	4613      	mov	r3, r2
 8002de6:	009b      	lsls	r3, r3, #2
 8002de8:	4413      	add	r3, r2
 8002dea:	009a      	lsls	r2, r3, #2
 8002dec:	441a      	add	r2, r3
 8002dee:	687b      	ldr	r3, [r7, #4]
 8002df0:	685b      	ldr	r3, [r3, #4]
 8002df2:	009b      	lsls	r3, r3, #2
 8002df4:	fbb2 f2f3 	udiv	r2, r2, r3
 8002df8:	4b1a      	ldr	r3, [pc, #104]	@ (8002e64 <UART_SetConfig+0x118>)
 8002dfa:	fba3 0302 	umull	r0, r3, r3, r2
 8002dfe:	095b      	lsrs	r3, r3, #5
 8002e00:	2064      	movs	r0, #100	@ 0x64
 8002e02:	fb00 f303 	mul.w	r3, r0, r3
 8002e06:	1ad3      	subs	r3, r2, r3
 8002e08:	011b      	lsls	r3, r3, #4
 8002e0a:	3332      	adds	r3, #50	@ 0x32
 8002e0c:	4a15      	ldr	r2, [pc, #84]	@ (8002e64 <UART_SetConfig+0x118>)
 8002e0e:	fba2 2303 	umull	r2, r3, r2, r3
 8002e12:	095b      	lsrs	r3, r3, #5
 8002e14:	f003 03f0 	and.w	r3, r3, #240	@ 0xf0
 8002e18:	4419      	add	r1, r3
 8002e1a:	68fa      	ldr	r2, [r7, #12]
 8002e1c:	4613      	mov	r3, r2
 8002e1e:	009b      	lsls	r3, r3, #2
 8002e20:	4413      	add	r3, r2
 8002e22:	009a      	lsls	r2, r3, #2
 8002e24:	441a      	add	r2, r3
 8002e26:	687b      	ldr	r3, [r7, #4]
 8002e28:	685b      	ldr	r3, [r3, #4]
 8002e2a:	009b      	lsls	r3, r3, #2
 8002e2c:	fbb2 f2f3 	udiv	r2, r2, r3
 8002e30:	4b0c      	ldr	r3, [pc, #48]	@ (8002e64 <UART_SetConfig+0x118>)
 8002e32:	fba3 0302 	umull	r0, r3, r3, r2
 8002e36:	095b      	lsrs	r3, r3, #5
 8002e38:	2064      	movs	r0, #100	@ 0x64
 8002e3a:	fb00 f303 	mul.w	r3, r0, r3
 8002e3e:	1ad3      	subs	r3, r2, r3
 8002e40:	011b      	lsls	r3, r3, #4
 8002e42:	3332      	adds	r3, #50	@ 0x32
 8002e44:	4a07      	ldr	r2, [pc, #28]	@ (8002e64 <UART_SetConfig+0x118>)
 8002e46:	fba2 2303 	umull	r2, r3, r2, r3
 8002e4a:	095b      	lsrs	r3, r3, #5
 8002e4c:	f003 020f 	and.w	r2, r3, #15
 8002e50:	687b      	ldr	r3, [r7, #4]
 8002e52:	681b      	ldr	r3, [r3, #0]
 8002e54:	440a      	add	r2, r1
 8002e56:	609a      	str	r2, [r3, #8]
 8002e58:	bf00      	nop
 8002e5a:	3710      	adds	r7, #16
 8002e5c:	46bd      	mov	sp, r7
 8002e5e:	bd80      	pop	{r7, pc}
 8002e60:	40013800 	.word	0x40013800
 8002e64:	51eb851f 	.word	0x51eb851f

08002e68 <memset>:
 8002e68:	4603      	mov	r3, r0
 8002e6a:	4402      	add	r2, r0
 8002e6c:	4293      	cmp	r3, r2
 8002e6e:	d100      	bne.n	8002e72 <memset+0xa>
 8002e70:	4770      	bx	lr
 8002e72:	f803 1b01 	strb.w	r1, [r3], #1
 8002e76:	e7f9      	b.n	8002e6c <memset+0x4>

08002e78 <__libc_init_array>:
 8002e78:	b570      	push	{r4, r5, r6, lr}
 8002e7a:	2600      	movs	r6, #0
 8002e7c:	4d0c      	ldr	r5, [pc, #48]	@ (8002eb0 <__libc_init_array+0x38>)
 8002e7e:	4c0d      	ldr	r4, [pc, #52]	@ (8002eb4 <__libc_init_array+0x3c>)
 8002e80:	1b64      	subs	r4, r4, r5
 8002e82:	10a4      	asrs	r4, r4, #2
 8002e84:	42a6      	cmp	r6, r4
 8002e86:	d109      	bne.n	8002e9c <__libc_init_array+0x24>
 8002e88:	f000 f81a 	bl	8002ec0 <_init>
 8002e8c:	2600      	movs	r6, #0
 8002e8e:	4d0a      	ldr	r5, [pc, #40]	@ (8002eb8 <__libc_init_array+0x40>)
 8002e90:	4c0a      	ldr	r4, [pc, #40]	@ (8002ebc <__libc_init_array+0x44>)
 8002e92:	1b64      	subs	r4, r4, r5
 8002e94:	10a4      	asrs	r4, r4, #2
 8002e96:	42a6      	cmp	r6, r4
 8002e98:	d105      	bne.n	8002ea6 <__libc_init_array+0x2e>
 8002e9a:	bd70      	pop	{r4, r5, r6, pc}
 8002e9c:	f855 3b04 	ldr.w	r3, [r5], #4
 8002ea0:	4798      	blx	r3
 8002ea2:	3601      	adds	r6, #1
 8002ea4:	e7ee      	b.n	8002e84 <__libc_init_array+0xc>
 8002ea6:	f855 3b04 	ldr.w	r3, [r5], #4
 8002eaa:	4798      	blx	r3
 8002eac:	3601      	adds	r6, #1
 8002eae:	e7f2      	b.n	8002e96 <__libc_init_array+0x1e>
 8002eb0:	08002f00 	.word	0x08002f00
 8002eb4:	08002f00 	.word	0x08002f00
 8002eb8:	08002f00 	.word	0x08002f00
 8002ebc:	08002f04 	.word	0x08002f04

08002ec0 <_init>:
 8002ec0:	b5f8      	push	{r3, r4, r5, r6, r7, lr}
 8002ec2:	bf00      	nop
 8002ec4:	bcf8      	pop	{r3, r4, r5, r6, r7}
 8002ec6:	bc08      	pop	{r3}
 8002ec8:	469e      	mov	lr, r3
 8002eca:	4770      	bx	lr

08002ecc <_fini>:
 8002ecc:	b5f8      	push	{r3, r4, r5, r6, r7, lr}
 8002ece:	bf00      	nop
 8002ed0:	bcf8      	pop	{r3, r4, r5, r6, r7}
 8002ed2:	bc08      	pop	{r3}
 8002ed4:	469e      	mov	lr, r3
 8002ed6:	4770      	bx	lr
